

Microchip MPLAB XC8 Assembler V2.32 build 20210201212658 
                                                                                               Wed Sep 08 10:41:30 2021

Microchip MPLAB XC8 C Compiler v2.32 (Free license) build 20210201212658 Og1 
     1                           	processor	16F18877
     2                           	pagewidth 120
     3                           	opt	flic
     4                           	psect	cinit,global,class=CODE,merge=1,delta=2
     5                           	psect	bssCOMMON,global,class=COMMON,space=1,delta=1,noexec
     6                           	psect	cstackCOMMON,global,class=COMMON,space=1,delta=1,noexec
     7                           	psect	maintext,global,class=CODE,merge=1,split=1,delta=2
     8                           	psect	config,global,abs,ovrld,class=CONFIG,space=4,delta=2,noexec
     9                           	dabs	1,0x7E,2
    10  0000                     
    11                           ; Version 2.35
    12                           ; Generated 13/04/2021 GMT
    13                           ; 
    14                           ; Copyright © 2021, Microchip Technology Inc. and its subsidiaries ("Microchip")
    15                           ; All rights reserved.
    16                           ; 
    17                           ; This software is developed by Microchip Technology Inc. and its subsidiaries ("Microch
      +                          ip").
    18                           ; 
    19                           ; Redistribution and use in source and binary forms, with or without modification, are
    20                           ; permitted provided that the following conditions are met:
    21                           ; 
    22                           ;     1. Redistributions of source code must retain the above copyright notice, this lis
      +                          t of
    23                           ;        conditions and the following disclaimer.
    24                           ; 
    25                           ;     2. Redistributions in binary form must reproduce the above copyright notice, this 
      +                          list
    26                           ;        of conditions and the following disclaimer in the documentation and/or other
    27                           ;        materials provided with the distribution. Publication is not required when
    28                           ;        this file is used in an embedded application.
    29                           ; 
    30                           ;     3. Microchip's name may not be used to endorse or promote products derived from th
      +                          is
    31                           ;        software without specific prior written permission.
    32                           ; 
    33                           ; THIS SOFTWARE IS PROVIDED BY MICROCHIP "AS IS" AND ANY EXPRESS OR IMPLIED WARRANTIES,
    34                           ; INCLUDING, BUT NOT LIMITED TO, THE IMPLIED WARRANTIES OF MERCHANTABILITY AND FITNESS F
      +                          OR
    35                           ; PURPOSE ARE DISCLAIMED.  IN NO EVENT SHALL MICROCHIP BE LIABLE FOR ANY DIRECT, INDIREC
      +                          T,
    36                           ; INCIDENTAL, SPECIAL, EXEMPLARY, OR CONSEQUENTIAL DAMAGES (INCLUDING BUT NOT LIMITED TO
    37                           ; PROCUREMENT OF SUBSTITUTE GOODS OR SERVICES; LOSS OF USE, DATA OR PROFITS; OR BUSINESS
    38                           ; INTERRUPTION) HOWSOEVER CAUSED AND ON ANY THEORY OF LIABILITY, WHETHER IN CONTRACT, ST
      +                          RICT
    39                           ; LIABILITY, OR TORT (INCLUDING NEGLIGENCE OR OTHERWISE) ARISING IN ANY WAY OUT OF THE U
      +                          SE OF
    40                           ; THIS SOFTWARE, EVEN IF ADVISED OF THE POSSIBILITY OF SUCH DAMAGE.
    41                           ; 
    42                           ; 
    43                           ; Code-generator required, PIC16F18877 Definitions
    44                           ; 
    45                           ; SFR Addresses
    46  0000                     	;# 
    47  0001                     	;# 
    48  0002                     	;# 
    49  0003                     	;# 
    50  0004                     	;# 
    51  0005                     	;# 
    52  0006                     	;# 
    53  0007                     	;# 
    54  0008                     	;# 
    55  0009                     	;# 
    56  000A                     	;# 
    57  000B                     	;# 
    58  000C                     	;# 
    59  000D                     	;# 
    60  000E                     	;# 
    61  000F                     	;# 
    62  0010                     	;# 
    63  0011                     	;# 
    64  0012                     	;# 
    65  0013                     	;# 
    66  0014                     	;# 
    67  0015                     	;# 
    68  0016                     	;# 
    69  0017                     	;# 
    70  0018                     	;# 
    71  0019                     	;# 
    72  001A                     	;# 
    73  001C                     	;# 
    74  001C                     	;# 
    75  001D                     	;# 
    76  001D                     	;# 
    77  001E                     	;# 
    78  001F                     	;# 
    79  008C                     	;# 
    80  008C                     	;# 
    81  008D                     	;# 
    82  008E                     	;# 
    83  008E                     	;# 
    84  008F                     	;# 
    85  0090                     	;# 
    86  0090                     	;# 
    87  0091                     	;# 
    88  0093                     	;# 
    89  0094                     	;# 
    90  0095                     	;# 
    91  0096                     	;# 
    92  0097                     	;# 
    93  0098                     	;# 
    94  0099                     	;# 
    95  009A                     	;# 
    96  009B                     	;# 
    97  009C                     	;# 
    98  009D                     	;# 
    99  009E                     	;# 
   100  010C                     	;# 
   101  010D                     	;# 
   102  010E                     	;# 
   103  010E                     	;# 
   104  010F                     	;# 
   105  0110                     	;# 
   106  0110                     	;# 
   107  0111                     	;# 
   108  0112                     	;# 
   109  0112                     	;# 
   110  0113                     	;# 
   111  0114                     	;# 
   112  0114                     	;# 
   113  0115                     	;# 
   114  0116                     	;# 
   115  0116                     	;# 
   116  0117                     	;# 
   117  0119                     	;# 
   118  0119                     	;# 
   119  0119                     	;# 
   120  011A                     	;# 
   121  011A                     	;# 
   122  011A                     	;# 
   123  011B                     	;# 
   124  011B                     	;# 
   125  011B                     	;# 
   126  011B                     	;# 
   127  011B                     	;# 
   128  011C                     	;# 
   129  011C                     	;# 
   130  011C                     	;# 
   131  011D                     	;# 
   132  011D                     	;# 
   133  011D                     	;# 
   134  011E                     	;# 
   135  011E                     	;# 
   136  011E                     	;# 
   137  011F                     	;# 
   138  011F                     	;# 
   139  011F                     	;# 
   140  011F                     	;# 
   141  011F                     	;# 
   142  018C                     	;# 
   143  018D                     	;# 
   144  018E                     	;# 
   145  018F                     	;# 
   146  0190                     	;# 
   147  0191                     	;# 
   148  0192                     	;# 
   149  0196                     	;# 
   150  0197                     	;# 
   151  0198                     	;# 
   152  0199                     	;# 
   153  019A                     	;# 
   154  019B                     	;# 
   155  019C                     	;# 
   156  020C                     	;# 
   157  020C                     	;# 
   158  020D                     	;# 
   159  020E                     	;# 
   160  020F                     	;# 
   161  020F                     	;# 
   162  0210                     	;# 
   163  0210                     	;# 
   164  0211                     	;# 
   165  0211                     	;# 
   166  0212                     	;# 
   167  0212                     	;# 
   168  0213                     	;# 
   169  0214                     	;# 
   170  0215                     	;# 
   171  0215                     	;# 
   172  0216                     	;# 
   173  0216                     	;# 
   174  0217                     	;# 
   175  0217                     	;# 
   176  0218                     	;# 
   177  0218                     	;# 
   178  0219                     	;# 
   179  021A                     	;# 
   180  021B                     	;# 
   181  021B                     	;# 
   182  021C                     	;# 
   183  021C                     	;# 
   184  021D                     	;# 
   185  021D                     	;# 
   186  021E                     	;# 
   187  021F                     	;# 
   188  028C                     	;# 
   189  028C                     	;# 
   190  028D                     	;# 
   191  028D                     	;# 
   192  028E                     	;# 
   193  028F                     	;# 
   194  0290                     	;# 
   195  0290                     	;# 
   196  0291                     	;# 
   197  0292                     	;# 
   198  0292                     	;# 
   199  0293                     	;# 
   200  0293                     	;# 
   201  0294                     	;# 
   202  0295                     	;# 
   203  0296                     	;# 
   204  0296                     	;# 
   205  0297                     	;# 
   206  0298                     	;# 
   207  0298                     	;# 
   208  0299                     	;# 
   209  0299                     	;# 
   210  029A                     	;# 
   211  029B                     	;# 
   212  029C                     	;# 
   213  029C                     	;# 
   214  029D                     	;# 
   215  030C                     	;# 
   216  030C                     	;# 
   217  030D                     	;# 
   218  030E                     	;# 
   219  030F                     	;# 
   220  0310                     	;# 
   221  0310                     	;# 
   222  0311                     	;# 
   223  0312                     	;# 
   224  0313                     	;# 
   225  0314                     	;# 
   226  0314                     	;# 
   227  0315                     	;# 
   228  0316                     	;# 
   229  0317                     	;# 
   230  0318                     	;# 
   231  0318                     	;# 
   232  0319                     	;# 
   233  031A                     	;# 
   234  031B                     	;# 
   235  031C                     	;# 
   236  031C                     	;# 
   237  031D                     	;# 
   238  031E                     	;# 
   239  031F                     	;# 
   240  038C                     	;# 
   241  038C                     	;# 
   242  038D                     	;# 
   243  038E                     	;# 
   244  0390                     	;# 
   245  0390                     	;# 
   246  0391                     	;# 
   247  0392                     	;# 
   248  040C                     	;# 
   249  040D                     	;# 
   250  040E                     	;# 
   251  040F                     	;# 
   252  0410                     	;# 
   253  0411                     	;# 
   254  0416                     	;# 
   255  0416                     	;# 
   256  0417                     	;# 
   257  0418                     	;# 
   258  0418                     	;# 
   259  0419                     	;# 
   260  041A                     	;# 
   261  041A                     	;# 
   262  041B                     	;# 
   263  041C                     	;# 
   264  041C                     	;# 
   265  041D                     	;# 
   266  041E                     	;# 
   267  041F                     	;# 
   268  048C                     	;# 
   269  048C                     	;# 
   270  048D                     	;# 
   271  048E                     	;# 
   272  048F                     	;# 
   273  048F                     	;# 
   274  0490                     	;# 
   275  0491                     	;# 
   276  0492                     	;# 
   277  0492                     	;# 
   278  0493                     	;# 
   279  0494                     	;# 
   280  0495                     	;# 
   281  0495                     	;# 
   282  0496                     	;# 
   283  0497                     	;# 
   284  0498                     	;# 
   285  0499                     	;# 
   286  049A                     	;# 
   287  049B                     	;# 
   288  049C                     	;# 
   289  049D                     	;# 
   290  050C                     	;# 
   291  050C                     	;# 
   292  050D                     	;# 
   293  050E                     	;# 
   294  050F                     	;# 
   295  050F                     	;# 
   296  0510                     	;# 
   297  0511                     	;# 
   298  0512                     	;# 
   299  0512                     	;# 
   300  0513                     	;# 
   301  0514                     	;# 
   302  0515                     	;# 
   303  0515                     	;# 
   304  0516                     	;# 
   305  0517                     	;# 
   306  0518                     	;# 
   307  0519                     	;# 
   308  051A                     	;# 
   309  051B                     	;# 
   310  051C                     	;# 
   311  051D                     	;# 
   312  058C                     	;# 
   313  058C                     	;# 
   314  058D                     	;# 
   315  058E                     	;# 
   316  058F                     	;# 
   317  058F                     	;# 
   318  0590                     	;# 
   319  0591                     	;# 
   320  0592                     	;# 
   321  0593                     	;# 
   322  060C                     	;# 
   323  060D                     	;# 
   324  060E                     	;# 
   325  060F                     	;# 
   326  0610                     	;# 
   327  0611                     	;# 
   328  0612                     	;# 
   329  0613                     	;# 
   330  0614                     	;# 
   331  0616                     	;# 
   332  0617                     	;# 
   333  0618                     	;# 
   334  0619                     	;# 
   335  061A                     	;# 
   336  061B                     	;# 
   337  061C                     	;# 
   338  061D                     	;# 
   339  061E                     	;# 
   340  068C                     	;# 
   341  068D                     	;# 
   342  068E                     	;# 
   343  068F                     	;# 
   344  0690                     	;# 
   345  0691                     	;# 
   346  0692                     	;# 
   347  0693                     	;# 
   348  0694                     	;# 
   349  070C                     	;# 
   350  070D                     	;# 
   351  070E                     	;# 
   352  070F                     	;# 
   353  0710                     	;# 
   354  0711                     	;# 
   355  0712                     	;# 
   356  0713                     	;# 
   357  0714                     	;# 
   358  0716                     	;# 
   359  0717                     	;# 
   360  0718                     	;# 
   361  0719                     	;# 
   362  071A                     	;# 
   363  071B                     	;# 
   364  071C                     	;# 
   365  071D                     	;# 
   366  071E                     	;# 
   367  0796                     	;# 
   368  0797                     	;# 
   369  0798                     	;# 
   370  0799                     	;# 
   371  079A                     	;# 
   372  079B                     	;# 
   373  080C                     	;# 
   374  080D                     	;# 
   375  080E                     	;# 
   376  080F                     	;# 
   377  0810                     	;# 
   378  0811                     	;# 
   379  0812                     	;# 
   380  0813                     	;# 
   381  0814                     	;# 
   382  081A                     	;# 
   383  081B                     	;# 
   384  081C                     	;# 
   385  081D                     	;# 
   386  081E                     	;# 
   387  081F                     	;# 
   388  088C                     	;# 
   389  088D                     	;# 
   390  088E                     	;# 
   391  088F                     	;# 
   392  0890                     	;# 
   393  0891                     	;# 
   394  0892                     	;# 
   395  0893                     	;# 
   396  0895                     	;# 
   397  0896                     	;# 
   398  0897                     	;# 
   399  0898                     	;# 
   400  0899                     	;# 
   401  089A                     	;# 
   402  089B                     	;# 
   403  090C                     	;# 
   404  090E                     	;# 
   405  090F                     	;# 
   406  091F                     	;# 
   407  098F                     	;# 
   408  098F                     	;# 
   409  0990                     	;# 
   410  0991                     	;# 
   411  0992                     	;# 
   412  0993                     	;# 
   413  0994                     	;# 
   414  0995                     	;# 
   415  0996                     	;# 
   416  0997                     	;# 
   417  1E0F                     	;# 
   418  1E10                     	;# 
   419  1E11                     	;# 
   420  1E12                     	;# 
   421  1E13                     	;# 
   422  1E14                     	;# 
   423  1E15                     	;# 
   424  1E16                     	;# 
   425  1E17                     	;# 
   426  1E18                     	;# 
   427  1E19                     	;# 
   428  1E1A                     	;# 
   429  1E1B                     	;# 
   430  1E1C                     	;# 
   431  1E1D                     	;# 
   432  1E1E                     	;# 
   433  1E1F                     	;# 
   434  1E20                     	;# 
   435  1E21                     	;# 
   436  1E22                     	;# 
   437  1E23                     	;# 
   438  1E24                     	;# 
   439  1E25                     	;# 
   440  1E26                     	;# 
   441  1E27                     	;# 
   442  1E28                     	;# 
   443  1E29                     	;# 
   444  1E2A                     	;# 
   445  1E2B                     	;# 
   446  1E2C                     	;# 
   447  1E2D                     	;# 
   448  1E2E                     	;# 
   449  1E2F                     	;# 
   450  1E30                     	;# 
   451  1E31                     	;# 
   452  1E32                     	;# 
   453  1E33                     	;# 
   454  1E34                     	;# 
   455  1E35                     	;# 
   456  1E36                     	;# 
   457  1E37                     	;# 
   458  1E8F                     	;# 
   459  1E90                     	;# 
   460  1E91                     	;# 
   461  1E92                     	;# 
   462  1E93                     	;# 
   463  1E94                     	;# 
   464  1E95                     	;# 
   465  1E96                     	;# 
   466  1E97                     	;# 
   467  1E9C                     	;# 
   468  1E9D                     	;# 
   469  1E9E                     	;# 
   470  1EA1                     	;# 
   471  1EA2                     	;# 
   472  1EA3                     	;# 
   473  1EA4                     	;# 
   474  1EA5                     	;# 
   475  1EA9                     	;# 
   476  1EAA                     	;# 
   477  1EAB                     	;# 
   478  1EAC                     	;# 
   479  1EB1                     	;# 
   480  1EB2                     	;# 
   481  1EB3                     	;# 
   482  1EB8                     	;# 
   483  1EB9                     	;# 
   484  1EBA                     	;# 
   485  1EBB                     	;# 
   486  1EBC                     	;# 
   487  1EBD                     	;# 
   488  1EBE                     	;# 
   489  1EC3                     	;# 
   490  1EC5                     	;# 
   491  1EC6                     	;# 
   492  1EC7                     	;# 
   493  1EC8                     	;# 
   494  1EC9                     	;# 
   495  1ECA                     	;# 
   496  1ECB                     	;# 
   497  1ECC                     	;# 
   498  1F10                     	;# 
   499  1F11                     	;# 
   500  1F12                     	;# 
   501  1F13                     	;# 
   502  1F14                     	;# 
   503  1F15                     	;# 
   504  1F16                     	;# 
   505  1F17                     	;# 
   506  1F18                     	;# 
   507  1F19                     	;# 
   508  1F1A                     	;# 
   509  1F1B                     	;# 
   510  1F1C                     	;# 
   511  1F1D                     	;# 
   512  1F1E                     	;# 
   513  1F1F                     	;# 
   514  1F20                     	;# 
   515  1F21                     	;# 
   516  1F22                     	;# 
   517  1F23                     	;# 
   518  1F24                     	;# 
   519  1F25                     	;# 
   520  1F26                     	;# 
   521  1F27                     	;# 
   522  1F28                     	;# 
   523  1F29                     	;# 
   524  1F2A                     	;# 
   525  1F2B                     	;# 
   526  1F2C                     	;# 
   527  1F2D                     	;# 
   528  1F2E                     	;# 
   529  1F2F                     	;# 
   530  1F30                     	;# 
   531  1F31                     	;# 
   532  1F32                     	;# 
   533  1F38                     	;# 
   534  1F39                     	;# 
   535  1F3A                     	;# 
   536  1F3B                     	;# 
   537  1F3C                     	;# 
   538  1F3D                     	;# 
   539  1F3E                     	;# 
   540  1F3F                     	;# 
   541  1F40                     	;# 
   542  1F41                     	;# 
   543  1F43                     	;# 
   544  1F44                     	;# 
   545  1F45                     	;# 
   546  1F46                     	;# 
   547  1F47                     	;# 
   548  1F48                     	;# 
   549  1F49                     	;# 
   550  1F4A                     	;# 
   551  1F4B                     	;# 
   552  1F4C                     	;# 
   553  1F4E                     	;# 
   554  1F4F                     	;# 
   555  1F50                     	;# 
   556  1F51                     	;# 
   557  1F52                     	;# 
   558  1F53                     	;# 
   559  1F54                     	;# 
   560  1F55                     	;# 
   561  1F56                     	;# 
   562  1F57                     	;# 
   563  1F59                     	;# 
   564  1F5A                     	;# 
   565  1F5B                     	;# 
   566  1F5C                     	;# 
   567  1F5D                     	;# 
   568  1F61                     	;# 
   569  1F62                     	;# 
   570  1F64                     	;# 
   571  1F65                     	;# 
   572  1F66                     	;# 
   573  1F67                     	;# 
   574  1F68                     	;# 
   575  1F69                     	;# 
   576  1F6A                     	;# 
   577  1F6B                     	;# 
   578  1F6C                     	;# 
   579  1F6D                     	;# 
   580  1FE4                     	;# 
   581  1FE5                     	;# 
   582  1FE6                     	;# 
   583  1FE7                     	;# 
   584  1FE8                     	;# 
   585  1FE9                     	;# 
   586  1FEA                     	;# 
   587  1FEB                     	;# 
   588  1FED                     	;# 
   589  1FEE                     	;# 
   590  1FEF                     	;# 
   591  0000                     	;# 
   592  0001                     	;# 
   593  0002                     	;# 
   594  0003                     	;# 
   595  0004                     	;# 
   596  0005                     	;# 
   597  0006                     	;# 
   598  0007                     	;# 
   599  0008                     	;# 
   600  0009                     	;# 
   601  000A                     	;# 
   602  000B                     	;# 
   603  000C                     	;# 
   604  000D                     	;# 
   605  000E                     	;# 
   606  000F                     	;# 
   607  0010                     	;# 
   608  0011                     	;# 
   609  0012                     	;# 
   610  0013                     	;# 
   611  0014                     	;# 
   612  0015                     	;# 
   613  0016                     	;# 
   614  0017                     	;# 
   615  0018                     	;# 
   616  0019                     	;# 
   617  001A                     	;# 
   618  001C                     	;# 
   619  001C                     	;# 
   620  001D                     	;# 
   621  001D                     	;# 
   622  001E                     	;# 
   623  001F                     	;# 
   624  008C                     	;# 
   625  008C                     	;# 
   626  008D                     	;# 
   627  008E                     	;# 
   628  008E                     	;# 
   629  008F                     	;# 
   630  0090                     	;# 
   631  0090                     	;# 
   632  0091                     	;# 
   633  0093                     	;# 
   634  0094                     	;# 
   635  0095                     	;# 
   636  0096                     	;# 
   637  0097                     	;# 
   638  0098                     	;# 
   639  0099                     	;# 
   640  009A                     	;# 
   641  009B                     	;# 
   642  009C                     	;# 
   643  009D                     	;# 
   644  009E                     	;# 
   645  010C                     	;# 
   646  010D                     	;# 
   647  010E                     	;# 
   648  010E                     	;# 
   649  010F                     	;# 
   650  0110                     	;# 
   651  0110                     	;# 
   652  0111                     	;# 
   653  0112                     	;# 
   654  0112                     	;# 
   655  0113                     	;# 
   656  0114                     	;# 
   657  0114                     	;# 
   658  0115                     	;# 
   659  0116                     	;# 
   660  0116                     	;# 
   661  0117                     	;# 
   662  0119                     	;# 
   663  0119                     	;# 
   664  0119                     	;# 
   665  011A                     	;# 
   666  011A                     	;# 
   667  011A                     	;# 
   668  011B                     	;# 
   669  011B                     	;# 
   670  011B                     	;# 
   671  011B                     	;# 
   672  011B                     	;# 
   673  011C                     	;# 
   674  011C                     	;# 
   675  011C                     	;# 
   676  011D                     	;# 
   677  011D                     	;# 
   678  011D                     	;# 
   679  011E                     	;# 
   680  011E                     	;# 
   681  011E                     	;# 
   682  011F                     	;# 
   683  011F                     	;# 
   684  011F                     	;# 
   685  011F                     	;# 
   686  011F                     	;# 
   687  018C                     	;# 
   688  018D                     	;# 
   689  018E                     	;# 
   690  018F                     	;# 
   691  0190                     	;# 
   692  0191                     	;# 
   693  0192                     	;# 
   694  0196                     	;# 
   695  0197                     	;# 
   696  0198                     	;# 
   697  0199                     	;# 
   698  019A                     	;# 
   699  019B                     	;# 
   700  019C                     	;# 
   701  020C                     	;# 
   702  020C                     	;# 
   703  020D                     	;# 
   704  020E                     	;# 
   705  020F                     	;# 
   706  020F                     	;# 
   707  0210                     	;# 
   708  0210                     	;# 
   709  0211                     	;# 
   710  0211                     	;# 
   711  0212                     	;# 
   712  0212                     	;# 
   713  0213                     	;# 
   714  0214                     	;# 
   715  0215                     	;# 
   716  0215                     	;# 
   717  0216                     	;# 
   718  0216                     	;# 
   719  0217                     	;# 
   720  0217                     	;# 
   721  0218                     	;# 
   722  0218                     	;# 
   723  0219                     	;# 
   724  021A                     	;# 
   725  021B                     	;# 
   726  021B                     	;# 
   727  021C                     	;# 
   728  021C                     	;# 
   729  021D                     	;# 
   730  021D                     	;# 
   731  021E                     	;# 
   732  021F                     	;# 
   733  028C                     	;# 
   734  028C                     	;# 
   735  028D                     	;# 
   736  028D                     	;# 
   737  028E                     	;# 
   738  028F                     	;# 
   739  0290                     	;# 
   740  0290                     	;# 
   741  0291                     	;# 
   742  0292                     	;# 
   743  0292                     	;# 
   744  0293                     	;# 
   745  0293                     	;# 
   746  0294                     	;# 
   747  0295                     	;# 
   748  0296                     	;# 
   749  0296                     	;# 
   750  0297                     	;# 
   751  0298                     	;# 
   752  0298                     	;# 
   753  0299                     	;# 
   754  0299                     	;# 
   755  029A                     	;# 
   756  029B                     	;# 
   757  029C                     	;# 
   758  029C                     	;# 
   759  029D                     	;# 
   760  030C                     	;# 
   761  030C                     	;# 
   762  030D                     	;# 
   763  030E                     	;# 
   764  030F                     	;# 
   765  0310                     	;# 
   766  0310                     	;# 
   767  0311                     	;# 
   768  0312                     	;# 
   769  0313                     	;# 
   770  0314                     	;# 
   771  0314                     	;# 
   772  0315                     	;# 
   773  0316                     	;# 
   774  0317                     	;# 
   775  0318                     	;# 
   776  0318                     	;# 
   777  0319                     	;# 
   778  031A                     	;# 
   779  031B                     	;# 
   780  031C                     	;# 
   781  031C                     	;# 
   782  031D                     	;# 
   783  031E                     	;# 
   784  031F                     	;# 
   785  038C                     	;# 
   786  038C                     	;# 
   787  038D                     	;# 
   788  038E                     	;# 
   789  0390                     	;# 
   790  0390                     	;# 
   791  0391                     	;# 
   792  0392                     	;# 
   793  040C                     	;# 
   794  040D                     	;# 
   795  040E                     	;# 
   796  040F                     	;# 
   797  0410                     	;# 
   798  0411                     	;# 
   799  0416                     	;# 
   800  0416                     	;# 
   801  0417                     	;# 
   802  0418                     	;# 
   803  0418                     	;# 
   804  0419                     	;# 
   805  041A                     	;# 
   806  041A                     	;# 
   807  041B                     	;# 
   808  041C                     	;# 
   809  041C                     	;# 
   810  041D                     	;# 
   811  041E                     	;# 
   812  041F                     	;# 
   813  048C                     	;# 
   814  048C                     	;# 
   815  048D                     	;# 
   816  048E                     	;# 
   817  048F                     	;# 
   818  048F                     	;# 
   819  0490                     	;# 
   820  0491                     	;# 
   821  0492                     	;# 
   822  0492                     	;# 
   823  0493                     	;# 
   824  0494                     	;# 
   825  0495                     	;# 
   826  0495                     	;# 
   827  0496                     	;# 
   828  0497                     	;# 
   829  0498                     	;# 
   830  0499                     	;# 
   831  049A                     	;# 
   832  049B                     	;# 
   833  049C                     	;# 
   834  049D                     	;# 
   835  050C                     	;# 
   836  050C                     	;# 
   837  050D                     	;# 
   838  050E                     	;# 
   839  050F                     	;# 
   840  050F                     	;# 
   841  0510                     	;# 
   842  0511                     	;# 
   843  0512                     	;# 
   844  0512                     	;# 
   845  0513                     	;# 
   846  0514                     	;# 
   847  0515                     	;# 
   848  0515                     	;# 
   849  0516                     	;# 
   850  0517                     	;# 
   851  0518                     	;# 
   852  0519                     	;# 
   853  051A                     	;# 
   854  051B                     	;# 
   855  051C                     	;# 
   856  051D                     	;# 
   857  058C                     	;# 
   858  058C                     	;# 
   859  058D                     	;# 
   860  058E                     	;# 
   861  058F                     	;# 
   862  058F                     	;# 
   863  0590                     	;# 
   864  0591                     	;# 
   865  0592                     	;# 
   866  0593                     	;# 
   867  060C                     	;# 
   868  060D                     	;# 
   869  060E                     	;# 
   870  060F                     	;# 
   871  0610                     	;# 
   872  0611                     	;# 
   873  0612                     	;# 
   874  0613                     	;# 
   875  0614                     	;# 
   876  0616                     	;# 
   877  0617                     	;# 
   878  0618                     	;# 
   879  0619                     	;# 
   880  061A                     	;# 
   881  061B                     	;# 
   882  061C                     	;# 
   883  061D                     	;# 
   884  061E                     	;# 
   885  068C                     	;# 
   886  068D                     	;# 
   887  068E                     	;# 
   888  068F                     	;# 
   889  0690                     	;# 
   890  0691                     	;# 
   891  0692                     	;# 
   892  0693                     	;# 
   893  0694                     	;# 
   894  070C                     	;# 
   895  070D                     	;# 
   896  070E                     	;# 
   897  070F                     	;# 
   898  0710                     	;# 
   899  0711                     	;# 
   900  0712                     	;# 
   901  0713                     	;# 
   902  0714                     	;# 
   903  0716                     	;# 
   904  0717                     	;# 
   905  0718                     	;# 
   906  0719                     	;# 
   907  071A                     	;# 
   908  071B                     	;# 
   909  071C                     	;# 
   910  071D                     	;# 
   911  071E                     	;# 
   912  0796                     	;# 
   913  0797                     	;# 
   914  0798                     	;# 
   915  0799                     	;# 
   916  079A                     	;# 
   917  079B                     	;# 
   918  080C                     	;# 
   919  080D                     	;# 
   920  080E                     	;# 
   921  080F                     	;# 
   922  0810                     	;# 
   923  0811                     	;# 
   924  0812                     	;# 
   925  0813                     	;# 
   926  0814                     	;# 
   927  081A                     	;# 
   928  081B                     	;# 
   929  081C                     	;# 
   930  081D                     	;# 
   931  081E                     	;# 
   932  081F                     	;# 
   933  088C                     	;# 
   934  088D                     	;# 
   935  088E                     	;# 
   936  088F                     	;# 
   937  0890                     	;# 
   938  0891                     	;# 
   939  0892                     	;# 
   940  0893                     	;# 
   941  0895                     	;# 
   942  0896                     	;# 
   943  0897                     	;# 
   944  0898                     	;# 
   945  0899                     	;# 
   946  089A                     	;# 
   947  089B                     	;# 
   948  090C                     	;# 
   949  090E                     	;# 
   950  090F                     	;# 
   951  091F                     	;# 
   952  098F                     	;# 
   953  098F                     	;# 
   954  0990                     	;# 
   955  0991                     	;# 
   956  0992                     	;# 
   957  0993                     	;# 
   958  0994                     	;# 
   959  0995                     	;# 
   960  0996                     	;# 
   961  0997                     	;# 
   962  1E0F                     	;# 
   963  1E10                     	;# 
   964  1E11                     	;# 
   965  1E12                     	;# 
   966  1E13                     	;# 
   967  1E14                     	;# 
   968  1E15                     	;# 
   969  1E16                     	;# 
   970  1E17                     	;# 
   971  1E18                     	;# 
   972  1E19                     	;# 
   973  1E1A                     	;# 
   974  1E1B                     	;# 
   975  1E1C                     	;# 
   976  1E1D                     	;# 
   977  1E1E                     	;# 
   978  1E1F                     	;# 
   979  1E20                     	;# 
   980  1E21                     	;# 
   981  1E22                     	;# 
   982  1E23                     	;# 
   983  1E24                     	;# 
   984  1E25                     	;# 
   985  1E26                     	;# 
   986  1E27                     	;# 
   987  1E28                     	;# 
   988  1E29                     	;# 
   989  1E2A                     	;# 
   990  1E2B                     	;# 
   991  1E2C                     	;# 
   992  1E2D                     	;# 
   993  1E2E                     	;# 
   994  1E2F                     	;# 
   995  1E30                     	;# 
   996  1E31                     	;# 
   997  1E32                     	;# 
   998  1E33                     	;# 
   999  1E34                     	;# 
  1000  1E35                     	;# 
  1001  1E36                     	;# 
  1002  1E37                     	;# 
  1003  1E8F                     	;# 
  1004  1E90                     	;# 
  1005  1E91                     	;# 
  1006  1E92                     	;# 
  1007  1E93                     	;# 
  1008  1E94                     	;# 
  1009  1E95                     	;# 
  1010  1E96                     	;# 
  1011  1E97                     	;# 
  1012  1E9C                     	;# 
  1013  1E9D                     	;# 
  1014  1E9E                     	;# 
  1015  1EA1                     	;# 
  1016  1EA2                     	;# 
  1017  1EA3                     	;# 
  1018  1EA4                     	;# 
  1019  1EA5                     	;# 
  1020  1EA9                     	;# 
  1021  1EAA                     	;# 
  1022  1EAB                     	;# 
  1023  1EAC                     	;# 
  1024  1EB1                     	;# 
  1025  1EB2                     	;# 
  1026  1EB3                     	;# 
  1027  1EB8                     	;# 
  1028  1EB9                     	;# 
  1029  1EBA                     	;# 
  1030  1EBB                     	;# 
  1031  1EBC                     	;# 
  1032  1EBD                     	;# 
  1033  1EBE                     	;# 
  1034  1EC3                     	;# 
  1035  1EC5                     	;# 
  1036  1EC6                     	;# 
  1037  1EC7                     	;# 
  1038  1EC8                     	;# 
  1039  1EC9                     	;# 
  1040  1ECA                     	;# 
  1041  1ECB                     	;# 
  1042  1ECC                     	;# 
  1043  1F10                     	;# 
  1044  1F11                     	;# 
  1045  1F12                     	;# 
  1046  1F13                     	;# 
  1047  1F14                     	;# 
  1048  1F15                     	;# 
  1049  1F16                     	;# 
  1050  1F17                     	;# 
  1051  1F18                     	;# 
  1052  1F19                     	;# 
  1053  1F1A                     	;# 
  1054  1F1B                     	;# 
  1055  1F1C                     	;# 
  1056  1F1D                     	;# 
  1057  1F1E                     	;# 
  1058  1F1F                     	;# 
  1059  1F20                     	;# 
  1060  1F21                     	;# 
  1061  1F22                     	;# 
  1062  1F23                     	;# 
  1063  1F24                     	;# 
  1064  1F25                     	;# 
  1065  1F26                     	;# 
  1066  1F27                     	;# 
  1067  1F28                     	;# 
  1068  1F29                     	;# 
  1069  1F2A                     	;# 
  1070  1F2B                     	;# 
  1071  1F2C                     	;# 
  1072  1F2D                     	;# 
  1073  1F2E                     	;# 
  1074  1F2F                     	;# 
  1075  1F30                     	;# 
  1076  1F31                     	;# 
  1077  1F32                     	;# 
  1078  1F38                     	;# 
  1079  1F39                     	;# 
  1080  1F3A                     	;# 
  1081  1F3B                     	;# 
  1082  1F3C                     	;# 
  1083  1F3D                     	;# 
  1084  1F3E                     	;# 
  1085  1F3F                     	;# 
  1086  1F40                     	;# 
  1087  1F41                     	;# 
  1088  1F43                     	;# 
  1089  1F44                     	;# 
  1090  1F45                     	;# 
  1091  1F46                     	;# 
  1092  1F47                     	;# 
  1093  1F48                     	;# 
  1094  1F49                     	;# 
  1095  1F4A                     	;# 
  1096  1F4B                     	;# 
  1097  1F4C                     	;# 
  1098  1F4E                     	;# 
  1099  1F4F                     	;# 
  1100  1F50                     	;# 
  1101  1F51                     	;# 
  1102  1F52                     	;# 
  1103  1F53                     	;# 
  1104  1F54                     	;# 
  1105  1F55                     	;# 
  1106  1F56                     	;# 
  1107  1F57                     	;# 
  1108  1F59                     	;# 
  1109  1F5A                     	;# 
  1110  1F5B                     	;# 
  1111  1F5C                     	;# 
  1112  1F5D                     	;# 
  1113  1F61                     	;# 
  1114  1F62                     	;# 
  1115  1F64                     	;# 
  1116  1F65                     	;# 
  1117  1F66                     	;# 
  1118  1F67                     	;# 
  1119  1F68                     	;# 
  1120  1F69                     	;# 
  1121  1F6A                     	;# 
  1122  1F6B                     	;# 
  1123  1F6C                     	;# 
  1124  1F6D                     	;# 
  1125  1FE4                     	;# 
  1126  1FE5                     	;# 
  1127  1FE6                     	;# 
  1128  1FE7                     	;# 
  1129  1FE8                     	;# 
  1130  1FE9                     	;# 
  1131  1FEA                     	;# 
  1132  1FEB                     	;# 
  1133  1FED                     	;# 
  1134  1FEE                     	;# 
  1135  1FEF                     	;# 
  1136  000D                     _PORTBbits	set	13
  1137  0012                     _TRISB	set	18
  1138  001A                     _LATEbits	set	26
  1139  0015                     _TRISEbits	set	21
  1140  0017                     _LATBbits	set	23
  1141  0012                     _TRISBbits	set	18
  1142  0019                     _LATD	set	25
  1143  0014                     _TRISD	set	20
  1144  1F44                     _WPUB	set	8004
  1145  1F43                     _ANSELB	set	8003
  1146  1F65                     _WPUEbits	set	8037
  1147  1F66                     _ODCONEbits	set	8038
  1148  1F64                     _ANSELEbits	set	8036
  1149  1F44                     _WPUBbits	set	8004
  1150  1F45                     _ODCONBbits	set	8005
  1151  1F43                     _ANSELBbits	set	8003
  1152  1F5A                     _WPUD	set	8026
  1153  1F5B                     _ODCOND	set	8027
  1154  1F59                     _ANSELD	set	8025
  1155                           
  1156                           	psect	cinit
  1157  07FA                     start_initialization:	
  1158                           ; #config settings
  1159                           
  1160  07FA                     __initialization:
  1161                           
  1162                           ; Clear objects allocated to COMMON
  1163  07FA  01F6               	clrf	__pbssCOMMON& (0+127)
  1164  07FB  01F7               	clrf	(__pbssCOMMON+1)& (0+127)
  1165  07FC  01F8               	clrf	(__pbssCOMMON+2)& (0+127)
  1166  07FD                     end_of_initialization:	
  1167                           ;End of C runtime variable initialization code
  1168                           
  1169  07FD                     __end_of__initialization:
  1170  07FD  0140               	movlb	0
  1171  07FE  3186  2E3B         	ljmp	_main	;jump to C main() function
  1172                           
  1173                           	psect	bssCOMMON
  1174  0076                     __pbssCOMMON:
  1175  0076                     _col:
  1176  0076                     	ds	1
  1177  0077                     _row:
  1178  0077                     	ds	1
  1179  0078                     _start:
  1180  0078                     	ds	1
  1181                           
  1182                           	psect	cstackCOMMON
  1183  0070                     __pcstackCOMMON:
  1184  0070                     ?_main:
  1185  0070                     main@argc:	
  1186                           ; 2 bytes @ 0x0
  1187                           
  1188                           
  1189                           ; 2 bytes @ 0x0
  1190  0070                     	ds	2
  1191  0072                     main@argv:
  1192                           
  1193                           ; 2 bytes @ 0x2
  1194  0072                     	ds	2
  1195  0074                     ??_main:
  1196                           
  1197                           ; 1 bytes @ 0x4
  1198  0074                     	ds	2
  1199                           
  1200                           	psect	maintext
  1201  063B                     __pmaintext:	
  1202 ;;
  1203 ;;Main: autosize = 0, tempsize = 2, incstack = 0, save=0
  1204 ;;
  1205 ;; *************** function _main *****************
  1206 ;; Defined at:
  1207 ;;		line 73 in file "newmain.c"
  1208 ;; Parameters:    Size  Location     Type
  1209 ;;  argc            2    0[COMMON] int 
  1210 ;;  argv            2    2[COMMON] PTR PTR unsigned char 
  1211 ;; Auto vars:     Size  Location     Type
  1212 ;;		None
  1213 ;; Return value:  Size  Location     Type
  1214 ;;                  2    0[COMMON] int 
  1215 ;; Registers used:
  1216 ;;		wreg, status,2
  1217 ;; Tracked objects:
  1218 ;;		On entry : B3F/0
  1219 ;;		On exit  : 0/0
  1220 ;;		Unchanged: 0/0
  1221 ;; Data sizes:     COMMON   BANK0   BANK1   BANK2   BANK3   BANK4   BANK5   BANK6   BANK7   BANK8   BANK9  BANK10  BANK1
      +1  BANK12  BANK13  BANK14  BANK15  BANK16  BANK17  BANK18  BANK19  BANK20  BANK21  BANK22  BANK23  BANK24  BANK25  BANK2
      +6  BANK27  BANK28  BANK29  BANK30  BANK31  BANK32  BANK33  BANK34  BANK35  BANK36  BANK37  BANK38  BANK39  BANK40  BANK4
      +1  BANK42  BANK43  BANK44  BANK45  BANK46  BANK47  BANK48  BANK49  BANK50
  1222 ;;      Params:         4       0       0       0       0       0       0       0       0       0       0       0       
      +0       0       0       0       0       0       0       0       0       0       0       0       0       0       0       
      +0       0       0       0       0       0       0       0       0       0       0       0       0       0       0       
      +0       0       0       0       0       0       0       0       0       0
  1223 ;;      Locals:         0       0       0       0       0       0       0       0       0       0       0       0       
      +0       0       0       0       0       0       0       0       0       0       0       0       0       0       0       
      +0       0       0       0       0       0       0       0       0       0       0       0       0       0       0       
      +0       0       0       0       0       0       0       0       0       0
  1224 ;;      Temps:          2       0       0       0       0       0       0       0       0       0       0       0       
      +0       0       0       0       0       0       0       0       0       0       0       0       0       0       0       
      +0       0       0       0       0       0       0       0       0       0       0       0       0       0       0       
      +0       0       0       0       0       0       0       0       0       0
  1225 ;;      Totals:         6       0       0       0       0       0       0       0       0       0       0       0       
      +0       0       0       0       0       0       0       0       0       0       0       0       0       0       0       
      +0       0       0       0       0       0       0       0       0       0       0       0       0       0       0       
      +0       0       0       0       0       0       0       0       0       0
  1226 ;;Total ram usage:        6 bytes
  1227 ;; This function calls:
  1228 ;;		Nothing
  1229 ;; This function is called by:
  1230 ;;		Startup code after reset
  1231 ;; This function uses a non-reentrant model
  1232 ;;
  1233                           
  1234                           
  1235                           ;psect for function _main
  1236  063B                     _main:
  1237  063B                     l939:	
  1238                           ;incstack = 0
  1239                           ; Regs used in _main: [wreg+status,2]
  1240                           
  1241                           
  1242                           ;newmain.c: 73: int main(int argc, char** argv);newmain.c: 74: {;newmain.c: 81:     TRIS
      +                          D = 0x00;
  1243  063B  0140               	movlb	0	; select bank0
  1244  063C  0194               	clrf	20	;volatile
  1245                           
  1246                           ;newmain.c: 82:     ANSELD = 0x00;
  1247  063D  017E               	movlb	62	; select bank62
  1248  063E  01D9               	clrf	89	;volatile
  1249                           
  1250                           ;newmain.c: 83:     ODCOND = 0x00;
  1251  063F  01DB               	clrf	91	;volatile
  1252                           
  1253                           ;newmain.c: 84:     WPUD = 0x00;
  1254  0640  01DA               	clrf	90	;volatile
  1255                           
  1256                           ;newmain.c: 85:     LATD = 0x00;
  1257  0641  0140               	movlb	0	; select bank0
  1258  0642  0199               	clrf	25	;volatile
  1259  0643                     l941:
  1260                           
  1261                           ;newmain.c: 88:     TRISBbits.TRISB1 = 0;
  1262  0643  1092               	bcf	18,1	;volatile
  1263  0644                     l943:
  1264                           
  1265                           ;newmain.c: 89:     ANSELBbits.ANSB1 = 0;
  1266  0644  017E               	movlb	62	; select bank62
  1267  0645  10C3               	bcf	67,1	;volatile
  1268  0646                     l945:
  1269                           
  1270                           ;newmain.c: 90:     ODCONBbits.ODCB1 = 0;
  1271  0646  10C5               	bcf	69,1	;volatile
  1272  0647                     l947:
  1273                           
  1274                           ;newmain.c: 91:     WPUBbits.WPUB1 = 0;
  1275  0647  10C4               	bcf	68,1	;volatile
  1276  0648                     l949:
  1277                           
  1278                           ;newmain.c: 92:     LATBbits.LATB1 = 0;
  1279  0648  0140               	movlb	0	; select bank0
  1280  0649  1097               	bcf	23,1	;volatile
  1281  064A                     l951:
  1282                           
  1283                           ;newmain.c: 94:     TRISEbits.TRISE0 = 0;
  1284  064A  1015               	bcf	21,0	;volatile
  1285  064B                     l953:
  1286                           
  1287                           ;newmain.c: 95:     ANSELEbits.ANSE0 = 0;
  1288  064B  017E               	movlb	62	; select bank62
  1289  064C  1064               	bcf	100,0	;volatile
  1290  064D                     l955:
  1291                           
  1292                           ;newmain.c: 96:     ODCONEbits.ODCE0 = 0;
  1293  064D  1066               	bcf	102,0	;volatile
  1294  064E                     l957:
  1295                           
  1296                           ;newmain.c: 97:     WPUEbits.WPUE0 = 0;
  1297  064E  1065               	bcf	101,0	;volatile
  1298  064F                     l959:
  1299                           
  1300                           ;newmain.c: 98:     LATEbits.LATE0 = 0;
  1301  064F  0140               	movlb	0	; select bank0
  1302  0650  101A               	bcf	26,0	;volatile
  1303  0651                     l961:
  1304                           
  1305                           ;newmain.c: 100:     TRISEbits.TRISE1 = 0;
  1306  0651  1095               	bcf	21,1	;volatile
  1307  0652                     l963:
  1308                           
  1309                           ;newmain.c: 101:     ANSELEbits.ANSE1 = 0;
  1310  0652  017E               	movlb	62	; select bank62
  1311  0653  10E4               	bcf	100,1	;volatile
  1312  0654                     l965:
  1313                           
  1314                           ;newmain.c: 102:     ODCONEbits.ODCE1 = 0;
  1315  0654  10E6               	bcf	102,1	;volatile
  1316  0655                     l967:
  1317                           
  1318                           ;newmain.c: 103:     WPUEbits.WPUE1 = 0;
  1319  0655  10E5               	bcf	101,1	;volatile
  1320  0656                     l969:
  1321                           
  1322                           ;newmain.c: 104:     LATEbits.LATE1 = 0;
  1323  0656  0140               	movlb	0	; select bank0
  1324  0657  109A               	bcf	26,1	;volatile
  1325  0658                     l971:
  1326                           
  1327                           ;newmain.c: 107:     TRISB = 0x01;
  1328  0658  3001               	movlw	1
  1329  0659  0092               	movwf	18	;volatile
  1330  065A                     l973:
  1331                           
  1332                           ;newmain.c: 108:     ANSELB = 0x00;
  1333  065A  017E               	movlb	62	; select bank62
  1334  065B  01C3               	clrf	67	;volatile
  1335                           
  1336                           ;newmain.c: 109:     WPUB = 0x01;
  1337  065C  3001               	movlw	1
  1338  065D  00C4               	movwf	68	;volatile
  1339  065E                     l975:
  1340                           
  1341                           ;newmain.c: 164:     LATEbits.LATE0 = 0;
  1342  065E  0140               	movlb	0	; select bank0
  1343  065F  101A               	bcf	26,0	;volatile
  1344                           
  1345                           ;newmain.c: 166:     LATD = 0x38;
  1346  0660  3038               	movlw	56
  1347  0661  0099               	movwf	25	;volatile
  1348  0662                     l977:
  1349                           
  1350                           ;newmain.c: 167:     LATEbits.LATE1 = 1;
  1351  0662  149A               	bsf	26,1	;volatile
  1352                           
  1353                           ;newmain.c: 168:     _delay((unsigned long)((2)*(1000000/4000.0)));
  1354  0663  30A6               	movlw	166
  1355  0664                     u37:
  1356  0664  0B89               	decfsz	9,f
  1357  0665  2E64               	goto	u37
  1358  0666  3200               	nop2
  1359  0667                     l979:
  1360                           
  1361                           ;newmain.c: 169:     LATEbits.LATE1 = 0;
  1362  0667  0140               	movlb	0	; select bank0
  1363  0668  109A               	bcf	26,1	;volatile
  1364                           
  1365                           ;newmain.c: 170:     _delay((unsigned long)((2)*(1000000/4000.0)));
  1366  0669  30A6               	movlw	166
  1367  066A                     u47:
  1368  066A  0B89               	decfsz	9,f
  1369  066B  2E6A               	goto	u47
  1370  066C  3200               	nop2
  1371                           
  1372                           ;newmain.c: 172:     LATD = 0x38;
  1373  066D  3038               	movlw	56
  1374  066E  0140               	movlb	0	; select bank0
  1375  066F  0099               	movwf	25	;volatile
  1376  0670                     l981:
  1377                           
  1378                           ;newmain.c: 173:     LATEbits.LATE1 = 1;
  1379  0670  149A               	bsf	26,1	;volatile
  1380                           
  1381                           ;newmain.c: 174:     _delay((unsigned long)((2)*(1000000/4000.0)));
  1382  0671  30A6               	movlw	166
  1383  0672                     u57:
  1384  0672  0B89               	decfsz	9,f
  1385  0673  2E72               	goto	u57
  1386  0674  3200               	nop2
  1387  0675                     l983:
  1388                           
  1389                           ;newmain.c: 175:     LATEbits.LATE1 = 0;
  1390  0675  0140               	movlb	0	; select bank0
  1391  0676  109A               	bcf	26,1	;volatile
  1392                           
  1393                           ;newmain.c: 176:     _delay((unsigned long)((2)*(1000000/4000.0)));
  1394  0677  30A6               	movlw	166
  1395  0678                     u67:
  1396  0678  0B89               	decfsz	9,f
  1397  0679  2E78               	goto	u67
  1398  067A  3200               	nop2
  1399                           
  1400                           ;newmain.c: 178:     LATD = 0x38;
  1401  067B  3038               	movlw	56
  1402  067C  0140               	movlb	0	; select bank0
  1403  067D  0099               	movwf	25	;volatile
  1404  067E                     l985:
  1405                           
  1406                           ;newmain.c: 179:     LATEbits.LATE1 = 1;
  1407  067E  149A               	bsf	26,1	;volatile
  1408                           
  1409                           ;newmain.c: 180:     _delay((unsigned long)((2)*(1000000/4000.0)));
  1410  067F  30A6               	movlw	166
  1411  0680                     u77:
  1412  0680  0B89               	decfsz	9,f
  1413  0681  2E80               	goto	u77
  1414  0682  3200               	nop2
  1415  0683                     l987:
  1416                           
  1417                           ;newmain.c: 181:     LATEbits.LATE1 = 0;
  1418  0683  0140               	movlb	0	; select bank0
  1419  0684  109A               	bcf	26,1	;volatile
  1420                           
  1421                           ;newmain.c: 182:     _delay((unsigned long)((2)*(1000000/4000.0)));
  1422  0685  30A6               	movlw	166
  1423  0686                     u87:
  1424  0686  0B89               	decfsz	9,f
  1425  0687  2E86               	goto	u87
  1426  0688  3200               	nop2
  1427                           
  1428                           ;newmain.c: 184:     LATD = 0x20;
  1429  0689  3020               	movlw	32
  1430  068A  0140               	movlb	0	; select bank0
  1431  068B  0099               	movwf	25	;volatile
  1432  068C                     l989:
  1433                           
  1434                           ;newmain.c: 185:     LATEbits.LATE1 = 1;
  1435  068C  149A               	bsf	26,1	;volatile
  1436                           
  1437                           ;newmain.c: 186:     _delay((unsigned long)((2)*(1000000/4000.0)));
  1438  068D  30A6               	movlw	166
  1439  068E                     u97:
  1440  068E  0B89               	decfsz	9,f
  1441  068F  2E8E               	goto	u97
  1442  0690  3200               	nop2
  1443  0691                     l991:
  1444                           
  1445                           ;newmain.c: 187:     LATEbits.LATE1 = 0;
  1446  0691  0140               	movlb	0	; select bank0
  1447  0692  109A               	bcf	26,1	;volatile
  1448                           
  1449                           ;newmain.c: 188:     _delay((unsigned long)((2)*(1000000/4000.0)));
  1450  0693  30A6               	movlw	166
  1451  0694                     u107:
  1452  0694  0B89               	decfsz	9,f
  1453  0695  2E94               	goto	u107
  1454  0696  3200               	nop2
  1455                           
  1456                           ;newmain.c: 190:     LATD = 0x20;
  1457  0697  3020               	movlw	32
  1458  0698  0140               	movlb	0	; select bank0
  1459  0699  0099               	movwf	25	;volatile
  1460  069A                     l993:
  1461                           
  1462                           ;newmain.c: 191:     LATEbits.LATE1 = 1;
  1463  069A  149A               	bsf	26,1	;volatile
  1464                           
  1465                           ;newmain.c: 192:     _delay((unsigned long)((2)*(1000000/4000.0)));
  1466  069B  30A6               	movlw	166
  1467  069C                     u117:
  1468  069C  0B89               	decfsz	9,f
  1469  069D  2E9C               	goto	u117
  1470  069E  3200               	nop2
  1471  069F                     l995:
  1472                           
  1473                           ;newmain.c: 193:     LATEbits.LATE1 = 0;
  1474  069F  0140               	movlb	0	; select bank0
  1475  06A0  109A               	bcf	26,1	;volatile
  1476                           
  1477                           ;newmain.c: 194:     _delay((unsigned long)((2)*(1000000/4000.0)));
  1478  06A1  30A6               	movlw	166
  1479  06A2                     u127:
  1480  06A2  0B89               	decfsz	9,f
  1481  06A3  2EA2               	goto	u127
  1482  06A4  3200               	nop2
  1483                           
  1484                           ;newmain.c: 196:     LATD = 0x80;
  1485  06A5  3080               	movlw	128
  1486  06A6  0140               	movlb	0	; select bank0
  1487  06A7  0099               	movwf	25	;volatile
  1488  06A8                     l997:
  1489                           
  1490                           ;newmain.c: 197:     LATEbits.LATE1 = 1;
  1491  06A8  149A               	bsf	26,1	;volatile
  1492                           
  1493                           ;newmain.c: 198:     _delay((unsigned long)((2)*(1000000/4000.0)));
  1494  06A9  30A6               	movlw	166
  1495  06AA                     u137:
  1496  06AA  0B89               	decfsz	9,f
  1497  06AB  2EAA               	goto	u137
  1498  06AC  3200               	nop2
  1499  06AD                     l999:
  1500                           
  1501                           ;newmain.c: 199:     LATEbits.LATE1 = 0;
  1502  06AD  0140               	movlb	0	; select bank0
  1503  06AE  109A               	bcf	26,1	;volatile
  1504                           
  1505                           ;newmain.c: 200:     _delay((unsigned long)((2)*(1000000/4000.0)));
  1506  06AF  30A6               	movlw	166
  1507  06B0                     u147:
  1508  06B0  0B89               	decfsz	9,f
  1509  06B1  2EB0               	goto	u147
  1510  06B2  3200               	nop2
  1511  06B3                     l1001:
  1512                           
  1513                           ;newmain.c: 202:     LATD = 0x00;
  1514  06B3  0140               	movlb	0	; select bank0
  1515  06B4  0199               	clrf	25	;volatile
  1516  06B5                     l1003:
  1517                           
  1518                           ;newmain.c: 203:     LATEbits.LATE1 = 1;
  1519  06B5  149A               	bsf	26,1	;volatile
  1520  06B6                     l1005:
  1521                           
  1522                           ;newmain.c: 204:     _delay((unsigned long)((2)*(1000000/4000.0)));
  1523  06B6  30A6               	movlw	166
  1524  06B7                     u157:
  1525  06B7  0B89               	decfsz	9,f
  1526  06B8  2EB7               	goto	u157
  1527  06B9  3200               	nop2
  1528  06BA                     l1007:
  1529                           
  1530                           ;newmain.c: 205:     LATEbits.LATE1 = 0;
  1531  06BA  0140               	movlb	0	; select bank0
  1532  06BB  109A               	bcf	26,1	;volatile
  1533  06BC                     l1009:
  1534                           
  1535                           ;newmain.c: 206:     _delay((unsigned long)((2)*(1000000/4000.0)));
  1536  06BC  30A6               	movlw	166
  1537  06BD                     u167:
  1538  06BD  0B89               	decfsz	9,f
  1539  06BE  2EBD               	goto	u167
  1540  06BF  3200               	nop2
  1541  06C0                     l1011:
  1542                           
  1543                           ;newmain.c: 208:     LATD = 0x20;
  1544  06C0  3020               	movlw	32
  1545  06C1  0140               	movlb	0	; select bank0
  1546  06C2  0099               	movwf	25	;volatile
  1547  06C3                     l1013:
  1548                           
  1549                           ;newmain.c: 209:     LATEbits.LATE1 = 1;
  1550  06C3  149A               	bsf	26,1	;volatile
  1551  06C4                     l1015:
  1552                           
  1553                           ;newmain.c: 210:     _delay((unsigned long)((2)*(1000000/4000.0)));
  1554  06C4  30A6               	movlw	166
  1555  06C5                     u177:
  1556  06C5  0B89               	decfsz	9,f
  1557  06C6  2EC5               	goto	u177
  1558  06C7  3200               	nop2
  1559  06C8                     l1017:
  1560                           
  1561                           ;newmain.c: 211:     LATEbits.LATE1 = 0;
  1562  06C8  0140               	movlb	0	; select bank0
  1563  06C9  109A               	bcf	26,1	;volatile
  1564  06CA                     l1019:
  1565                           
  1566                           ;newmain.c: 212:     _delay((unsigned long)((2)*(1000000/4000.0)));
  1567  06CA  30A6               	movlw	166
  1568  06CB                     u187:
  1569  06CB  0B89               	decfsz	9,f
  1570  06CC  2ECB               	goto	u187
  1571  06CD  3200               	nop2
  1572                           
  1573                           ;newmain.c: 214:     LATD = 0x00;
  1574  06CE  0140               	movlb	0	; select bank0
  1575  06CF  0199               	clrf	25	;volatile
  1576  06D0                     l1021:
  1577                           
  1578                           ;newmain.c: 215:     LATEbits.LATE1 = 1;
  1579  06D0  149A               	bsf	26,1	;volatile
  1580  06D1                     l1023:
  1581                           
  1582                           ;newmain.c: 216:     _delay((unsigned long)((2)*(1000000/4000.0)));
  1583  06D1  30A6               	movlw	166
  1584  06D2                     u197:
  1585  06D2  0B89               	decfsz	9,f
  1586  06D3  2ED2               	goto	u197
  1587  06D4  3200               	nop2
  1588  06D5                     l1025:
  1589                           
  1590                           ;newmain.c: 217:     LATEbits.LATE1 = 0;
  1591  06D5  0140               	movlb	0	; select bank0
  1592  06D6  109A               	bcf	26,1	;volatile
  1593  06D7                     l1027:
  1594                           
  1595                           ;newmain.c: 218:     _delay((unsigned long)((2)*(1000000/4000.0)));
  1596  06D7  30A6               	movlw	166
  1597  06D8                     u207:
  1598  06D8  0B89               	decfsz	9,f
  1599  06D9  2ED8               	goto	u207
  1600  06DA  3200               	nop2
  1601  06DB                     l1029:
  1602                           
  1603                           ;newmain.c: 220:     LATD = 0xC0;
  1604  06DB  30C0               	movlw	192
  1605  06DC  0140               	movlb	0	; select bank0
  1606  06DD  0099               	movwf	25	;volatile
  1607  06DE                     l1031:
  1608                           
  1609                           ;newmain.c: 221:     LATEbits.LATE1 = 1;
  1610  06DE  149A               	bsf	26,1	;volatile
  1611  06DF                     l1033:
  1612                           
  1613                           ;newmain.c: 222:     _delay((unsigned long)((2)*(1000000/4000.0)));
  1614  06DF  30A6               	movlw	166
  1615  06E0                     u217:
  1616  06E0  0B89               	decfsz	9,f
  1617  06E1  2EE0               	goto	u217
  1618  06E2  3200               	nop2
  1619  06E3                     l1035:
  1620                           
  1621                           ;newmain.c: 223:     LATEbits.LATE1 = 0;
  1622  06E3  0140               	movlb	0	; select bank0
  1623  06E4  109A               	bcf	26,1	;volatile
  1624  06E5                     l1037:
  1625                           
  1626                           ;newmain.c: 224:     _delay((unsigned long)((2)*(1000000/4000.0)));
  1627  06E5  30A6               	movlw	166
  1628  06E6                     u227:
  1629  06E6  0B89               	decfsz	9,f
  1630  06E7  2EE6               	goto	u227
  1631  06E8  3200               	nop2
  1632  06E9                     l1039:
  1633                           
  1634                           ;newmain.c: 226:     LATD = 0x00;
  1635  06E9  0140               	movlb	0	; select bank0
  1636  06EA  0199               	clrf	25	;volatile
  1637  06EB                     l1041:
  1638                           
  1639                           ;newmain.c: 227:     LATEbits.LATE1 = 1;
  1640  06EB  149A               	bsf	26,1	;volatile
  1641                           
  1642                           ;newmain.c: 228:     _delay((unsigned long)((2)*(1000000/4000.0)));
  1643  06EC  30A6               	movlw	166
  1644  06ED                     u237:
  1645  06ED  0B89               	decfsz	9,f
  1646  06EE  2EED               	goto	u237
  1647  06EF  3200               	nop2
  1648  06F0                     l1043:
  1649                           
  1650                           ;newmain.c: 229:     LATEbits.LATE1 = 0;
  1651  06F0  0140               	movlb	0	; select bank0
  1652  06F1  109A               	bcf	26,1	;volatile
  1653                           
  1654                           ;newmain.c: 230:     _delay((unsigned long)((2)*(1000000/4000.0)));
  1655  06F2  30A6               	movlw	166
  1656  06F3                     u247:
  1657  06F3  0B89               	decfsz	9,f
  1658  06F4  2EF3               	goto	u247
  1659  06F5  3200               	nop2
  1660                           
  1661                           ;newmain.c: 232:     LATD = 0x10;
  1662  06F6  3010               	movlw	16
  1663  06F7  0140               	movlb	0	; select bank0
  1664  06F8  0099               	movwf	25	;volatile
  1665  06F9                     l1045:
  1666                           
  1667                           ;newmain.c: 233:     LATEbits.LATE1 = 1;
  1668  06F9  149A               	bsf	26,1	;volatile
  1669                           
  1670                           ;newmain.c: 234:     _delay((unsigned long)((2)*(1000000/4000.0)));
  1671  06FA  30A6               	movlw	166
  1672  06FB                     u257:
  1673  06FB  0B89               	decfsz	9,f
  1674  06FC  2EFB               	goto	u257
  1675  06FD  3200               	nop2
  1676  06FE                     l1047:
  1677                           
  1678                           ;newmain.c: 235:     LATEbits.LATE1 = 0;
  1679  06FE  0140               	movlb	0	; select bank0
  1680  06FF  109A               	bcf	26,1	;volatile
  1681                           
  1682                           ;newmain.c: 236:     _delay((unsigned long)((2)*(1000000/4000.0)));
  1683  0700  30A6               	movlw	166
  1684  0701                     u267:
  1685  0701  0B89               	decfsz	9,f
  1686  0702  2F01               	goto	u267
  1687  0703  3200               	nop2
  1688                           
  1689                           ;newmain.c: 238:     LATD = 0x80;
  1690  0704  3080               	movlw	128
  1691  0705  0140               	movlb	0	; select bank0
  1692  0706  0099               	movwf	25	;volatile
  1693  0707                     l1049:
  1694                           
  1695                           ;newmain.c: 239:     LATEbits.LATE1 = 1;
  1696  0707  149A               	bsf	26,1	;volatile
  1697                           
  1698                           ;newmain.c: 240:     _delay((unsigned long)((2)*(1000000/4000.0)));
  1699  0708  30A6               	movlw	166
  1700  0709                     u277:
  1701  0709  0B89               	decfsz	9,f
  1702  070A  2F09               	goto	u277
  1703  070B  3200               	nop2
  1704  070C                     l1051:
  1705                           
  1706                           ;newmain.c: 241:     LATEbits.LATE1 = 0;
  1707  070C  0140               	movlb	0	; select bank0
  1708  070D  109A               	bcf	26,1	;volatile
  1709                           
  1710                           ;newmain.c: 242:     _delay((unsigned long)((2)*(1000000/4000.0)));
  1711  070E  30A6               	movlw	166
  1712  070F                     u287:
  1713  070F  0B89               	decfsz	9,f
  1714  0710  2F0F               	goto	u287
  1715  0711  3200               	nop2
  1716  0712                     l1053:
  1717                           
  1718                           ;newmain.c: 244:     LATD = 0x00;
  1719  0712  0140               	movlb	0	; select bank0
  1720  0713  0199               	clrf	25	;volatile
  1721  0714                     l1055:
  1722                           
  1723                           ;newmain.c: 245:     LATEbits.LATE1 = 1;
  1724  0714  149A               	bsf	26,1	;volatile
  1725  0715                     l1057:
  1726                           
  1727                           ;newmain.c: 246:     _delay((unsigned long)((2)*(1000000/4000.0)));
  1728  0715  30A6               	movlw	166
  1729  0716                     u297:
  1730  0716  0B89               	decfsz	9,f
  1731  0717  2F16               	goto	u297
  1732  0718  3200               	nop2
  1733  0719                     l1059:
  1734                           
  1735                           ;newmain.c: 247:     LATEbits.LATE1 = 0;
  1736  0719  0140               	movlb	0	; select bank0
  1737  071A  109A               	bcf	26,1	;volatile
  1738  071B                     l1061:
  1739                           
  1740                           ;newmain.c: 248:     _delay((unsigned long)((2)*(1000000/4000.0)));
  1741  071B  30A6               	movlw	166
  1742  071C                     u307:
  1743  071C  0B89               	decfsz	9,f
  1744  071D  2F1C               	goto	u307
  1745  071E  3200               	nop2
  1746  071F                     l1063:
  1747                           
  1748                           ;newmain.c: 252:     LATEbits.LATE0 = 1;
  1749  071F  0140               	movlb	0	; select bank0
  1750  0720  141A               	bsf	26,0	;volatile
  1751  0721                     l1065:
  1752                           
  1753                           ;newmain.c: 254:     LATD = 'm';
  1754  0721  306D               	movlw	109
  1755  0722  0099               	movwf	25	;volatile
  1756  0723                     l1067:
  1757                           
  1758                           ;newmain.c: 255:     LATEbits.LATE1 = 1;
  1759  0723  149A               	bsf	26,1	;volatile
  1760  0724                     l1069:
  1761                           
  1762                           ;newmain.c: 256:     _delay((unsigned long)((2)*(1000000/4000.0)));
  1763  0724  30A6               	movlw	166
  1764  0725                     u317:
  1765  0725  0B89               	decfsz	9,f
  1766  0726  2F25               	goto	u317
  1767  0727  3200               	nop2
  1768  0728                     l1071:
  1769                           
  1770                           ;newmain.c: 257:     LATEbits.LATE1 = 0;
  1771  0728  0140               	movlb	0	; select bank0
  1772  0729  109A               	bcf	26,1	;volatile
  1773  072A                     l1073:
  1774                           
  1775                           ;newmain.c: 258:     _delay((unsigned long)((2)*(1000000/4000.0)));
  1776  072A  30A6               	movlw	166
  1777  072B                     u327:
  1778  072B  0B89               	decfsz	9,f
  1779  072C  2F2B               	goto	u327
  1780  072D  3200               	nop2
  1781  072E                     l1075:
  1782                           
  1783                           ;newmain.c: 260:     LATD = 'm'<<4;
  1784  072E  30D0               	movlw	208
  1785  072F  0140               	movlb	0	; select bank0
  1786  0730  0099               	movwf	25	;volatile
  1787  0731                     l1077:
  1788                           
  1789                           ;newmain.c: 261:     LATEbits.LATE1 = 1;
  1790  0731  149A               	bsf	26,1	;volatile
  1791  0732                     l1079:
  1792                           
  1793                           ;newmain.c: 262:     _delay((unsigned long)((2)*(1000000/4000.0)));
  1794  0732  30A6               	movlw	166
  1795  0733                     u337:
  1796  0733  0B89               	decfsz	9,f
  1797  0734  2F33               	goto	u337
  1798  0735  3200               	nop2
  1799  0736                     l1081:
  1800                           
  1801                           ;newmain.c: 263:     LATEbits.LATE1 = 0;
  1802  0736  0140               	movlb	0	; select bank0
  1803  0737  109A               	bcf	26,1	;volatile
  1804  0738                     l1083:
  1805                           
  1806                           ;newmain.c: 264:     _delay((unsigned long)((2)*(1000000/4000.0)));
  1807  0738  30A6               	movlw	166
  1808  0739                     u347:
  1809  0739  0B89               	decfsz	9,f
  1810  073A  2F39               	goto	u347
  1811  073B  3200               	nop2
  1812  073C                     l1085:
  1813                           
  1814                           ;newmain.c: 266:     LATD = 'a';
  1815  073C  3061               	movlw	97
  1816  073D  0140               	movlb	0	; select bank0
  1817  073E  0099               	movwf	25	;volatile
  1818  073F                     l1087:
  1819                           
  1820                           ;newmain.c: 267:     LATEbits.LATE1 = 1;
  1821  073F  149A               	bsf	26,1	;volatile
  1822  0740                     l1089:
  1823                           
  1824                           ;newmain.c: 268:     _delay((unsigned long)((2)*(1000000/4000.0)));
  1825  0740  30A6               	movlw	166
  1826  0741                     u357:
  1827  0741  0B89               	decfsz	9,f
  1828  0742  2F41               	goto	u357
  1829  0743  3200               	nop2
  1830  0744                     l1091:
  1831                           
  1832                           ;newmain.c: 269:     LATEbits.LATE1 = 0;
  1833  0744  0140               	movlb	0	; select bank0
  1834  0745  109A               	bcf	26,1	;volatile
  1835  0746                     l1093:
  1836                           
  1837                           ;newmain.c: 270:     _delay((unsigned long)((2)*(1000000/4000.0)));
  1838  0746  30A6               	movlw	166
  1839  0747                     u367:
  1840  0747  0B89               	decfsz	9,f
  1841  0748  2F47               	goto	u367
  1842  0749  3200               	nop2
  1843  074A                     l1095:
  1844                           
  1845                           ;newmain.c: 272:     LATD = 'a'<<4;
  1846  074A  3010               	movlw	16
  1847  074B  0140               	movlb	0	; select bank0
  1848  074C  0099               	movwf	25	;volatile
  1849  074D                     l1097:
  1850                           
  1851                           ;newmain.c: 273:     LATEbits.LATE1 = 1;
  1852  074D  149A               	bsf	26,1	;volatile
  1853  074E                     l1099:
  1854                           
  1855                           ;newmain.c: 274:     _delay((unsigned long)((2)*(1000000/4000.0)));
  1856  074E  30A6               	movlw	166
  1857  074F                     u377:
  1858  074F  0B89               	decfsz	9,f
  1859  0750  2F4F               	goto	u377
  1860  0751  3200               	nop2
  1861  0752                     l1101:
  1862                           
  1863                           ;newmain.c: 275:     LATEbits.LATE1 = 0;
  1864  0752  0140               	movlb	0	; select bank0
  1865  0753  109A               	bcf	26,1	;volatile
  1866  0754                     l1103:
  1867                           
  1868                           ;newmain.c: 276:     _delay((unsigned long)((2)*(1000000/4000.0)));
  1869  0754  30A6               	movlw	166
  1870  0755                     u387:
  1871  0755  0B89               	decfsz	9,f
  1872  0756  2F55               	goto	u387
  1873  0757  3200               	nop2
  1874  0758                     l1105:
  1875                           
  1876                           ;newmain.c: 278:     LATD = 'i';
  1877  0758  3069               	movlw	105
  1878  0759  0140               	movlb	0	; select bank0
  1879  075A  0099               	movwf	25	;volatile
  1880  075B                     l1107:
  1881                           
  1882                           ;newmain.c: 279:     LATEbits.LATE1 = 1;
  1883  075B  149A               	bsf	26,1	;volatile
  1884  075C                     l1109:
  1885                           
  1886                           ;newmain.c: 280:     _delay((unsigned long)((2)*(1000000/4000.0)));
  1887  075C  30A6               	movlw	166
  1888  075D                     u397:
  1889  075D  0B89               	decfsz	9,f
  1890  075E  2F5D               	goto	u397
  1891  075F  3200               	nop2
  1892  0760                     l1111:
  1893                           
  1894                           ;newmain.c: 281:     LATEbits.LATE1 = 0;
  1895  0760  0140               	movlb	0	; select bank0
  1896  0761  109A               	bcf	26,1	;volatile
  1897  0762                     l1113:
  1898                           
  1899                           ;newmain.c: 282:     _delay((unsigned long)((2)*(1000000/4000.0)));
  1900  0762  30A6               	movlw	166
  1901  0763                     u407:
  1902  0763  0B89               	decfsz	9,f
  1903  0764  2F63               	goto	u407
  1904  0765  3200               	nop2
  1905  0766                     l1115:
  1906                           
  1907                           ;newmain.c: 284:     LATD = 'i'<<4;
  1908  0766  3090               	movlw	144
  1909  0767  0140               	movlb	0	; select bank0
  1910  0768  0099               	movwf	25	;volatile
  1911  0769                     l1117:
  1912                           
  1913                           ;newmain.c: 285:     LATEbits.LATE1 = 1;
  1914  0769  149A               	bsf	26,1	;volatile
  1915  076A                     l1119:
  1916                           
  1917                           ;newmain.c: 286:     _delay((unsigned long)((2)*(1000000/4000.0)));
  1918  076A  30A6               	movlw	166
  1919  076B                     u417:
  1920  076B  0B89               	decfsz	9,f
  1921  076C  2F6B               	goto	u417
  1922  076D  3200               	nop2
  1923  076E                     l1121:
  1924                           
  1925                           ;newmain.c: 287:     LATEbits.LATE1 = 0;
  1926  076E  0140               	movlb	0	; select bank0
  1927  076F  109A               	bcf	26,1	;volatile
  1928  0770                     l1123:
  1929                           
  1930                           ;newmain.c: 288:     _delay((unsigned long)((2)*(1000000/4000.0)));
  1931  0770  30A6               	movlw	166
  1932  0771                     u427:
  1933  0771  0B89               	decfsz	9,f
  1934  0772  2F71               	goto	u427
  1935  0773  3200               	nop2
  1936  0774                     l1125:
  1937                           
  1938                           ;newmain.c: 290:     LATD = 'm';
  1939  0774  306D               	movlw	109
  1940  0775  0140               	movlb	0	; select bank0
  1941  0776  0099               	movwf	25	;volatile
  1942  0777                     l1127:
  1943                           
  1944                           ;newmain.c: 291:     LATEbits.LATE1 = 1;
  1945  0777  149A               	bsf	26,1	;volatile
  1946  0778                     l1129:
  1947                           
  1948                           ;newmain.c: 292:     _delay((unsigned long)((2)*(1000000/4000.0)));
  1949  0778  30A6               	movlw	166
  1950  0779                     u437:
  1951  0779  0B89               	decfsz	9,f
  1952  077A  2F79               	goto	u437
  1953  077B  3200               	nop2
  1954  077C                     l1131:
  1955                           
  1956                           ;newmain.c: 293:     LATEbits.LATE1 = 0;
  1957  077C  0140               	movlb	0	; select bank0
  1958  077D  109A               	bcf	26,1	;volatile
  1959  077E                     l1133:
  1960                           
  1961                           ;newmain.c: 294:     _delay((unsigned long)((2)*(1000000/4000.0)));
  1962  077E  30A6               	movlw	166
  1963  077F                     u447:
  1964  077F  0B89               	decfsz	9,f
  1965  0780  2F7F               	goto	u447
  1966  0781  3200               	nop2
  1967  0782                     l1135:
  1968                           
  1969                           ;newmain.c: 296:     LATD = 'm'<<4;
  1970  0782  30D0               	movlw	208
  1971  0783  0140               	movlb	0	; select bank0
  1972  0784  0099               	movwf	25	;volatile
  1973  0785                     l1137:
  1974                           
  1975                           ;newmain.c: 297:     LATEbits.LATE1 = 1;
  1976  0785  149A               	bsf	26,1	;volatile
  1977  0786                     l1139:
  1978                           
  1979                           ;newmain.c: 298:     _delay((unsigned long)((2)*(1000000/4000.0)));
  1980  0786  30A6               	movlw	166
  1981  0787                     u457:
  1982  0787  0B89               	decfsz	9,f
  1983  0788  2F87               	goto	u457
  1984  0789  3200               	nop2
  1985  078A                     l1141:
  1986                           
  1987                           ;newmain.c: 299:     LATEbits.LATE1 = 0;
  1988  078A  0140               	movlb	0	; select bank0
  1989  078B  109A               	bcf	26,1	;volatile
  1990  078C                     l1143:
  1991                           
  1992                           ;newmain.c: 300:     _delay((unsigned long)((2)*(1000000/4000.0)));
  1993  078C  30A6               	movlw	166
  1994  078D                     u467:
  1995  078D  0B89               	decfsz	9,f
  1996  078E  2F8D               	goto	u467
  1997  078F  3200               	nop2
  1998  0790                     l1145:
  1999                           
  2000                           ;newmain.c: 302:     LATD = 'u';
  2001  0790  3075               	movlw	117
  2002  0791  0140               	movlb	0	; select bank0
  2003  0792  0099               	movwf	25	;volatile
  2004  0793                     l1147:
  2005                           
  2006                           ;newmain.c: 303:     LATEbits.LATE1 = 1;
  2007  0793  149A               	bsf	26,1	;volatile
  2008  0794                     l1149:
  2009                           
  2010                           ;newmain.c: 304:     _delay((unsigned long)((2)*(1000000/4000.0)));
  2011  0794  30A6               	movlw	166
  2012  0795                     u477:
  2013  0795  0B89               	decfsz	9,f
  2014  0796  2F95               	goto	u477
  2015  0797  3200               	nop2
  2016  0798                     l1151:
  2017                           
  2018                           ;newmain.c: 305:     LATEbits.LATE1 = 0;
  2019  0798  0140               	movlb	0	; select bank0
  2020  0799  109A               	bcf	26,1	;volatile
  2021  079A                     l1153:
  2022                           
  2023                           ;newmain.c: 306:     _delay((unsigned long)((2)*(1000000/4000.0)));
  2024  079A  30A6               	movlw	166
  2025  079B                     u487:
  2026  079B  0B89               	decfsz	9,f
  2027  079C  2F9B               	goto	u487
  2028  079D  3200               	nop2
  2029  079E                     l1155:
  2030                           
  2031                           ;newmain.c: 308:     LATD = 'u'<<4;
  2032  079E  3050               	movlw	80
  2033  079F  0140               	movlb	0	; select bank0
  2034  07A0  0099               	movwf	25	;volatile
  2035  07A1                     l1157:
  2036                           
  2037                           ;newmain.c: 309:     LATEbits.LATE1 = 1;
  2038  07A1  149A               	bsf	26,1	;volatile
  2039  07A2                     l1159:
  2040                           
  2041                           ;newmain.c: 310:     _delay((unsigned long)((2)*(1000000/4000.0)));
  2042  07A2  30A6               	movlw	166
  2043  07A3                     u497:
  2044  07A3  0B89               	decfsz	9,f
  2045  07A4  2FA3               	goto	u497
  2046  07A5  3200               	nop2
  2047  07A6                     l1161:
  2048                           
  2049                           ;newmain.c: 311:     LATEbits.LATE1 = 0;
  2050  07A6  0140               	movlb	0	; select bank0
  2051  07A7  109A               	bcf	26,1	;volatile
  2052  07A8                     l1163:
  2053                           
  2054                           ;newmain.c: 312:     _delay((unsigned long)((2)*(1000000/4000.0)));
  2055  07A8  30A6               	movlw	166
  2056  07A9                     u507:
  2057  07A9  0B89               	decfsz	9,f
  2058  07AA  2FA9               	goto	u507
  2059  07AB  3200               	nop2
  2060  07AC                     l1165:
  2061                           
  2062                           ;newmain.c: 314:     LATD = 'n';
  2063  07AC  306E               	movlw	110
  2064  07AD  0140               	movlb	0	; select bank0
  2065  07AE  0099               	movwf	25	;volatile
  2066  07AF                     l1167:
  2067                           
  2068                           ;newmain.c: 315:     LATEbits.LATE1 = 1;
  2069  07AF  149A               	bsf	26,1	;volatile
  2070  07B0                     l1169:
  2071                           
  2072                           ;newmain.c: 316:     _delay((unsigned long)((2)*(1000000/4000.0)));
  2073  07B0  30A6               	movlw	166
  2074  07B1                     u517:
  2075  07B1  0B89               	decfsz	9,f
  2076  07B2  2FB1               	goto	u517
  2077  07B3  3200               	nop2
  2078  07B4                     l1171:
  2079                           
  2080                           ;newmain.c: 317:     LATEbits.LATE1 = 0;
  2081  07B4  0140               	movlb	0	; select bank0
  2082  07B5  109A               	bcf	26,1	;volatile
  2083  07B6                     l1173:
  2084                           
  2085                           ;newmain.c: 318:     _delay((unsigned long)((2)*(1000000/4000.0)));
  2086  07B6  30A6               	movlw	166
  2087  07B7                     u527:
  2088  07B7  0B89               	decfsz	9,f
  2089  07B8  2FB7               	goto	u527
  2090  07B9  3200               	nop2
  2091  07BA                     l1175:
  2092                           
  2093                           ;newmain.c: 320:     LATD = 'n'<<4;
  2094  07BA  30E0               	movlw	224
  2095  07BB  0140               	movlb	0	; select bank0
  2096  07BC  0099               	movwf	25	;volatile
  2097  07BD                     l1177:
  2098                           
  2099                           ;newmain.c: 321:     LATEbits.LATE1 = 1;
  2100  07BD  149A               	bsf	26,1	;volatile
  2101  07BE                     l1179:
  2102                           
  2103                           ;newmain.c: 322:     _delay((unsigned long)((2)*(1000000/4000.0)));
  2104  07BE  30A6               	movlw	166
  2105  07BF                     u537:
  2106  07BF  0B89               	decfsz	9,f
  2107  07C0  2FBF               	goto	u537
  2108  07C1  3200               	nop2
  2109  07C2                     l1181:
  2110                           
  2111                           ;newmain.c: 323:     LATEbits.LATE1 = 0;
  2112  07C2  0140               	movlb	0	; select bank0
  2113  07C3  109A               	bcf	26,1	;volatile
  2114  07C4                     l1183:
  2115                           
  2116                           ;newmain.c: 324:     _delay((unsigned long)((2)*(1000000/4000.0)));
  2117  07C4  30A6               	movlw	166
  2118  07C5                     u547:
  2119  07C5  0B89               	decfsz	9,f
  2120  07C6  2FC5               	goto	u547
  2121  07C7  3200               	nop2
  2122  07C8                     l1185:
  2123                           
  2124                           ;newmain.c: 326:     LATD = 'a';
  2125  07C8  3061               	movlw	97
  2126  07C9  0140               	movlb	0	; select bank0
  2127  07CA  0099               	movwf	25	;volatile
  2128  07CB                     l1187:
  2129                           
  2130                           ;newmain.c: 327:     LATEbits.LATE1 = 1;
  2131  07CB  149A               	bsf	26,1	;volatile
  2132  07CC                     l1189:
  2133                           
  2134                           ;newmain.c: 328:     _delay((unsigned long)((2)*(1000000/4000.0)));
  2135  07CC  30A6               	movlw	166
  2136  07CD                     u557:
  2137  07CD  0B89               	decfsz	9,f
  2138  07CE  2FCD               	goto	u557
  2139  07CF  3200               	nop2
  2140  07D0                     l1191:
  2141                           
  2142                           ;newmain.c: 329:     LATEbits.LATE1 = 0;
  2143  07D0  0140               	movlb	0	; select bank0
  2144  07D1  109A               	bcf	26,1	;volatile
  2145  07D2                     l1193:
  2146                           
  2147                           ;newmain.c: 330:     _delay((unsigned long)((2)*(1000000/4000.0)));
  2148  07D2  30A6               	movlw	166
  2149  07D3                     u567:
  2150  07D3  0B89               	decfsz	9,f
  2151  07D4  2FD3               	goto	u567
  2152  07D5  3200               	nop2
  2153  07D6                     l1195:
  2154                           
  2155                           ;newmain.c: 332:     LATD = 'a'<<4;
  2156  07D6  3010               	movlw	16
  2157  07D7  0140               	movlb	0	; select bank0
  2158  07D8  0099               	movwf	25	;volatile
  2159  07D9                     l1197:
  2160                           
  2161                           ;newmain.c: 333:     LATEbits.LATE1 = 1;
  2162  07D9  149A               	bsf	26,1	;volatile
  2163  07DA                     l1199:
  2164                           
  2165                           ;newmain.c: 334:     _delay((unsigned long)((2)*(1000000/4000.0)));
  2166  07DA  30A6               	movlw	166
  2167  07DB                     u577:
  2168  07DB  0B89               	decfsz	9,f
  2169  07DC  2FDB               	goto	u577
  2170  07DD  3200               	nop2
  2171  07DE                     l1201:
  2172                           
  2173                           ;newmain.c: 335:     LATEbits.LATE1 = 0;
  2174  07DE  0140               	movlb	0	; select bank0
  2175  07DF  109A               	bcf	26,1	;volatile
  2176  07E0                     l1203:
  2177                           
  2178                           ;newmain.c: 336:     _delay((unsigned long)((2)*(1000000/4000.0)));
  2179  07E0  30A6               	movlw	166
  2180  07E1                     u587:
  2181  07E1  0B89               	decfsz	9,f
  2182  07E2  2FE1               	goto	u587
  2183  07E3  3200               	nop2
  2184  07E4                     l1205:
  2185                           
  2186                           ;newmain.c: 349:     {;newmain.c: 362:         if(PORTBbits.RB0 == 0)
  2187  07E4  0140               	movlb	0	; select bank0
  2188  07E5  180D               	btfsc	13,0	;volatile
  2189  07E6  2FE8               	goto	u21
  2190  07E7  2FE9               	goto	u20
  2191  07E8                     u21:
  2192  07E8  2FE4               	goto	l1205
  2193  07E9                     u20:
  2194  07E9                     l1207:
  2195                           
  2196                           ;newmain.c: 370:         {;newmain.c: 371:             LATBbits.LATB1 = 1;
  2197  07E9  1497               	bsf	23,1	;volatile
  2198  07EA                     l1209:
  2199                           
  2200                           ;newmain.c: 372:             _delay((unsigned long)((1000)*(1000000/4000.0)));
  2201  07EA  3002               	movlw	2
  2202  07EB  00F5               	movwf	??_main+1
  2203  07EC  3045               	movlw	69
  2204  07ED  00F4               	movwf	??_main
  2205  07EE  30AA               	movlw	170
  2206  07EF                     u597:
  2207  07EF  0B89               	decfsz	9,f
  2208  07F0  2FEF               	goto	u597
  2209  07F1  0BF4               	decfsz	??_main,f
  2210  07F2  2FEF               	goto	u597
  2211  07F3  0BF5               	decfsz	??_main+1,f
  2212  07F4  2FEF               	goto	u597
  2213  07F5                     l1211:
  2214                           
  2215                           ;newmain.c: 373:             LATBbits.LATB1 = 0;
  2216  07F5  0140               	movlb	0	; select bank0
  2217  07F6  1097               	bcf	23,1	;volatile
  2218  07F7  2FE4               	goto	l1205
  2219  07F8  3180  2802         	ljmp	start
  2220  07FA                     __end_of_main:
  2221  007E                     btemp	set	126	;btemp
  2222  007E                     wtemp0	set	126
  2223                           
  2224                           	psect	config
  2225                           
  2226                           ;Config register CONFIG1 @ 0x8007
  2227                           ;	External Oscillator mode selection bits
  2228                           ;	FEXTOSC = OFF, Oscillator not enabled
  2229                           ;	Power-up default value for COSC bits
  2230                           ;	RSTOSC = HFINT1, HFINTOSC (1MHz)
  2231                           ;	Clock Out Enable bit
  2232                           ;	CLKOUTEN = OFF, CLKOUT function is disabled; i/o or oscillator function on OSC2
  2233                           ;	Clock Switch Enable bit
  2234                           ;	CSWEN = ON, Writing to NOSC and NDIV is allowed
  2235                           ;	Fail-Safe Clock Monitor Enable bit
  2236                           ;	FCMEN = ON, FSCM timer enabled
  2237  8007                     	org	32775
  2238  8007  3FEC               	dw	16364
  2239                           
  2240                           ;Config register CONFIG2 @ 0x8008
  2241                           ;	Master Clear Enable bit
  2242                           ;	MCLRE = ON, MCLR pin is Master Clear function
  2243                           ;	Power-up Timer Enable bit
  2244                           ;	PWRTE = OFF, PWRT disabled
  2245                           ;	Low-Power BOR enable bit
  2246                           ;	LPBOREN = OFF, ULPBOR disabled
  2247                           ;	Brown-out reset enable bits
  2248                           ;	BOREN = ON, Brown-out Reset Enabled, SBOREN bit is ignored
  2249                           ;	Brown-out Reset Voltage Selection
  2250                           ;	BORV = LO, Brown-out Reset Voltage (VBOR) set to 1.9V on LF, and 2.45V on F Devices
  2251                           ;	Zero-cross detect disable
  2252                           ;	ZCD = OFF, Zero-cross detect circuit is disabled at POR.
  2253                           ;	Peripheral Pin Select one-way control
  2254                           ;	PPS1WAY = ON, The PPSLOCK bit can be cleared and set only once in software
  2255                           ;	Stack Overflow/Underflow Reset Enable bit
  2256                           ;	STVREN = ON, Stack Overflow or Underflow will cause a reset
  2257                           ;	Background Debugger
  2258                           ;	DEBUG = 0x1, unprogrammed default
  2259  8008                     	org	32776
  2260  8008  3FFF               	dw	16383
  2261                           
  2262                           ;Config register CONFIG3 @ 0x8009
  2263                           ;	WDT Period Select bits
  2264                           ;	WDTCPS = WDTCPS_31, Divider ratio 1:65536; software control of WDTPS
  2265                           ;	WDT operating mode
  2266                           ;	WDTE = OFF, WDT Disabled, SWDTEN is ignored
  2267                           ;	WDT Window Select bits
  2268                           ;	WDTCWS = WDTCWS_7, window always open (100%); software control; keyed access not requi
      +                          red
  2269                           ;	WDT input clock selector
  2270                           ;	WDTCCS = SC, Software Control
  2271  8009                     	org	32777
  2272  8009  3F9F               	dw	16287
  2273                           
  2274                           ;Config register CONFIG4 @ 0x800A
  2275                           ;	UserNVM self-write protection bits
  2276                           ;	WRT = OFF, Write protection off
  2277                           ;	Scanner Enable bit
  2278                           ;	SCANE = available, Scanner module is available for use
  2279                           ;	Low Voltage Programming Enable bit
  2280                           ;	LVP = ON, Low Voltage programming enabled. MCLR/Vpp pin function is MCLR.
  2281  800A                     	org	32778
  2282  800A  3FFF               	dw	16383
  2283                           
  2284                           ;Config register CONFIG5 @ 0x800B
  2285                           ;	UserNVM Program memory code protection bit
  2286                           ;	CP = OFF, Program Memory code protection disabled
  2287                           ;	DataNVM code protection bit
  2288                           ;	CPD = OFF, Data EEPROM code protection disabled
  2289  800B                     	org	32779
  2290  800B  3FFF               	dw	16383

Data Sizes:
    Strings     0
    Constant    0
    Data        0
    BSS         3
    Persistent  32
    Stack       0

Auto Spaces:
    Space          Size  Autos    Used
    COMMON           14      6       9
    BANK0            80      0       0
    BANK1            80      0       0
    BANK2            80      0       0
    BANK3            80      0       0
    BANK4            80      0       0
    BANK5            80      0       0
    BANK6            80      0       0
    BANK7            80      0       0
    BANK8            80      0       0
    BANK9            80      0       0
    BANK10           80      0       0
    BANK11           80      0       0
    BANK12           80      0       0
    BANK13           80      0       0
    BANK14           80      0       0
    BANK15           80      0       0
    BANK16           80      0       0
    BANK17           80      0       0
    BANK18           80      0       0
    BANK19           80      0       0
    BANK20           80      0       0
    BANK21           80      0       0
    BANK22           80      0       0
    BANK23           80      0       0
    BANK24           80      0       0
    BANK25           80      0       0
    BANK26           80      0       0
    BANK27           80      0       0
    BANK28           80      0       0
    BANK29           80      0       0
    BANK30           80      0       0
    BANK31           80      0       0
    BANK32           80      0       0
    BANK33           80      0       0
    BANK34           80      0       0
    BANK35           80      0       0
    BANK36           80      0       0
    BANK37           80      0       0
    BANK38           80      0       0
    BANK39           80      0       0
    BANK40           80      0       0
    BANK41           80      0       0
    BANK42           80      0       0
    BANK43           80      0       0
    BANK44           80      0       0
    BANK45           80      0       0
    BANK46           80      0       0
    BANK47           80      0       0
    BANK48           80      0       0
    BANK49           80      0       0
    BANK50           80      0       0

Pointer List with Targets:

    None.

Critical Paths under _main in COMMON

    None.

Critical Paths under _main in BANK0

    None.

Critical Paths under _main in BANK1

    None.

Critical Paths under _main in BANK2

    None.

Critical Paths under _main in BANK3

    None.

Critical Paths under _main in BANK4

    None.

Critical Paths under _main in BANK5

    None.

Critical Paths under _main in BANK6

    None.

Critical Paths under _main in BANK7

    None.

Critical Paths under _main in BANK8

    None.

Critical Paths under _main in BANK9

    None.

Critical Paths under _main in BANK10

    None.

Critical Paths under _main in BANK11

    None.

Critical Paths under _main in BANK12

    None.

Critical Paths under _main in BANK13

    None.

Critical Paths under _main in BANK14

    None.

Critical Paths under _main in BANK15

    None.

Critical Paths under _main in BANK16

    None.

Critical Paths under _main in BANK17

    None.

Critical Paths under _main in BANK18

    None.

Critical Paths under _main in BANK19

    None.

Critical Paths under _main in BANK20

    None.

Critical Paths under _main in BANK21

    None.

Critical Paths under _main in BANK22

    None.

Critical Paths under _main in BANK23

    None.

Critical Paths under _main in BANK24

    None.

Critical Paths under _main in BANK25

    None.

Critical Paths under _main in BANK26

    None.

Critical Paths under _main in BANK27

    None.

Critical Paths under _main in BANK28

    None.

Critical Paths under _main in BANK29

    None.

Critical Paths under _main in BANK30

    None.

Critical Paths under _main in BANK31

    None.

Critical Paths under _main in BANK32

    None.

Critical Paths under _main in BANK33

    None.

Critical Paths under _main in BANK34

    None.

Critical Paths under _main in BANK35

    None.

Critical Paths under _main in BANK36

    None.

Critical Paths under _main in BANK37

    None.

Critical Paths under _main in BANK38

    None.

Critical Paths under _main in BANK39

    None.

Critical Paths under _main in BANK40

    None.

Critical Paths under _main in BANK41

    None.

Critical Paths under _main in BANK42

    None.

Critical Paths under _main in BANK43

    None.

Critical Paths under _main in BANK44

    None.

Critical Paths under _main in BANK45

    None.

Critical Paths under _main in BANK46

    None.

Critical Paths under _main in BANK47

    None.

Critical Paths under _main in BANK48

    None.

Critical Paths under _main in BANK49

    None.

Critical Paths under _main in BANK50

    None.

Call Graph Tables:

 ---------------------------------------------------------------------------------
 (Depth) Function   	        Calls       Base Space   Used Autos Params    Refs
 ---------------------------------------------------------------------------------
 (0) _main                                                 6     2      4       0
                                              0 COMMON     6     2      4
 ---------------------------------------------------------------------------------
 Estimated maximum stack depth 0
 ---------------------------------------------------------------------------------

 Call Graph Graphs:

 _main (ROOT)

 Address spaces:
Name               Size   Autos  Total    Cost      Usage
BIGRAM             FF0      0       0       0        0.0%
EEDATA             100      0       0       0        0.0%
NULL                 0      0       0       0        0.0%
CODE                 0      0       0       0        0.0%
BITCOMMON            E      0       0       1        0.0%
BITSFR0              0      0       0       1        0.0%
SFR0                 0      0       0       1        0.0%
COMMON               E      6       9       2       64.3%
BITSFR1              0      0       0       2        0.0%
SFR1                 0      0       0       2        0.0%
BITSFR2              0      0       0       3        0.0%
SFR2                 0      0       0       3        0.0%
STACK                0      0       0       3        0.0%
BITBANK0            50      0       0       4        0.0%
BITSFR3              0      0       0       4        0.0%
SFR3                 0      0       0       4        0.0%
BANK0               50      0       0       5        0.0%
BITSFR4              0      0       0       5        0.0%
SFR4                 0      0       0       5        0.0%
BITBANK1            50      0       0       6        0.0%
BITSFR5              0      0       0       6        0.0%
SFR5                 0      0       0       6        0.0%
BANK1               50      0       0       7        0.0%
BITSFR6              0      0       0       7        0.0%
SFR6                 0      0       0       7        0.0%
BITBANK2            50      0       0       8        0.0%
BITSFR7              0      0       0       8        0.0%
SFR7                 0      0       0       8        0.0%
BANK2               50      0       0       9        0.0%
BITSFR8              0      0       0       9        0.0%
SFR8                 0      0       0       9        0.0%
BITBANK3            50      0       0      10        0.0%
BITSFR9              0      0       0      10        0.0%
SFR9                 0      0       0      10        0.0%
BANK3               50      0       0      11        0.0%
BITSFR10             0      0       0      11        0.0%
SFR10                0      0       0      11        0.0%
BITBANK4            50      0       0      12        0.0%
BITSFR11             0      0       0      12        0.0%
SFR11                0      0       0      12        0.0%
BANK4               50      0       0      13        0.0%
BITSFR12             0      0       0      13        0.0%
SFR12                0      0       0      13        0.0%
BITBANK5            50      0       0      14        0.0%
BITSFR13             0      0       0      14        0.0%
SFR13                0      0       0      14        0.0%
BANK5               50      0       0      15        0.0%
BITSFR14             0      0       0      15        0.0%
SFR14                0      0       0      15        0.0%
BITBANK6            50      0       0      16        0.0%
BITSFR15             0      0       0      16        0.0%
SFR15                0      0       0      16        0.0%
BANK6               50      0       0      17        0.0%
BITSFR16             0      0       0      17        0.0%
SFR16                0      0       0      17        0.0%
BITBANK7            50      0       0      18        0.0%
BITSFR17             0      0       0      18        0.0%
SFR17                0      0       0      18        0.0%
BANK7               50      0       0      19        0.0%
BITSFR18             0      0       0      19        0.0%
SFR18                0      0       0      19        0.0%
BITBANK8            50      0       0      20        0.0%
BITSFR19             0      0       0      20        0.0%
SFR19                0      0       0      20        0.0%
BANK8               50      0       0      21        0.0%
BITSFR20             0      0       0      21        0.0%
SFR20                0      0       0      21        0.0%
BITBANK9            50      0       0      22        0.0%
BITSFR21             0      0       0      22        0.0%
SFR21                0      0       0      22        0.0%
BANK9               50      0       0      23        0.0%
BITSFR22             0      0       0      23        0.0%
SFR22                0      0       0      23        0.0%
BITBANK10           50      0       0      24        0.0%
BITSFR23             0      0       0      24        0.0%
SFR23                0      0       0      24        0.0%
BANK10              50      0       0      25        0.0%
BITSFR24             0      0       0      25        0.0%
SFR24                0      0       0      25        0.0%
BITBANK11           50      0       0      26        0.0%
BITSFR25             0      0       0      26        0.0%
SFR25                0      0       0      26        0.0%
BANK11              50      0       0      27        0.0%
BITSFR26             0      0       0      27        0.0%
SFR26                0      0       0      27        0.0%
BITSFR27             0      0       0      28        0.0%
SFR27                0      0       0      28        0.0%
ABS                  0      0       9      28        0.0%
BITBANK12           50      0       0      29        0.0%
BITSFR28             0      0       0      29        0.0%
SFR28                0      0       0      29        0.0%
BANK12              50      0       0      30        0.0%
BITSFR29             0      0       0      30        0.0%
SFR29                0      0       0      30        0.0%
BITBANK13           50      0       0      31        0.0%
BITSFR30             0      0       0      31        0.0%
SFR30                0      0       0      31        0.0%
BANK13              50      0       0      32        0.0%
BITSFR31             0      0       0      32        0.0%
SFR31                0      0       0      32        0.0%
BITBANK14           50      0       0      33        0.0%
BITSFR32             0      0       0      33        0.0%
SFR32                0      0       0      33        0.0%
BANK14              50      0       0      34        0.0%
BITSFR33             0      0       0      34        0.0%
SFR33                0      0       0      34        0.0%
BITBANK15           50      0       0      35        0.0%
BITSFR34             0      0       0      35        0.0%
SFR34                0      0       0      35        0.0%
BANK15              50      0       0      36        0.0%
BITSFR35             0      0       0      36        0.0%
SFR35                0      0       0      36        0.0%
BITBANK16           50      0       0      37        0.0%
BITSFR36             0      0       0      37        0.0%
SFR36                0      0       0      37        0.0%
BANK16              50      0       0      38        0.0%
BITSFR37             0      0       0      38        0.0%
SFR37                0      0       0      38        0.0%
BITBANK17           50      0       0      39        0.0%
BITSFR38             0      0       0      39        0.0%
SFR38                0      0       0      39        0.0%
BANK17              50      0       0      40        0.0%
BITSFR39             0      0       0      40        0.0%
SFR39                0      0       0      40        0.0%
BITBANK18           50      0       0      41        0.0%
BITSFR40             0      0       0      41        0.0%
SFR40                0      0       0      41        0.0%
BANK18              50      0       0      42        0.0%
BITSFR41             0      0       0      42        0.0%
SFR41                0      0       0      42        0.0%
BITBANK19           50      0       0      43        0.0%
BITSFR42             0      0       0      43        0.0%
SFR42                0      0       0      43        0.0%
BANK19              50      0       0      44        0.0%
BITSFR43             0      0       0      44        0.0%
SFR43                0      0       0      44        0.0%
BITBANK20           50      0       0      45        0.0%
BITSFR44             0      0       0      45        0.0%
SFR44                0      0       0      45        0.0%
BANK20              50      0       0      46        0.0%
BITSFR45             0      0       0      46        0.0%
SFR45                0      0       0      46        0.0%
BITBANK21           50      0       0      47        0.0%
BITSFR46             0      0       0      47        0.0%
SFR46                0      0       0      47        0.0%
BANK21              50      0       0      48        0.0%
BITSFR47             0      0       0      48        0.0%
SFR47                0      0       0      48        0.0%
BITBANK22           50      0       0      49        0.0%
BITSFR48             0      0       0      49        0.0%
SFR48                0      0       0      49        0.0%
BANK22              50      0       0      50        0.0%
BITSFR49             0      0       0      50        0.0%
SFR49                0      0       0      50        0.0%
BITBANK23           50      0       0      51        0.0%
BITSFR50             0      0       0      51        0.0%
SFR50                0      0       0      51        0.0%
BANK23              50      0       0      52        0.0%
BITSFR51             0      0       0      52        0.0%
SFR51                0      0       0      52        0.0%
BITBANK24           50      0       0      53        0.0%
BITSFR52             0      0       0      53        0.0%
SFR52                0      0       0      53        0.0%
BANK24              50      0       0      54        0.0%
BITSFR53             0      0       0      54        0.0%
SFR53                0      0       0      54        0.0%
BITBANK25           50      0       0      55        0.0%
BITSFR54             0      0       0      55        0.0%
SFR54                0      0       0      55        0.0%
BANK25              50      0       0      56        0.0%
BITSFR55             0      0       0      56        0.0%
SFR55                0      0       0      56        0.0%
BITBANK26           50      0       0      57        0.0%
BITSFR56             0      0       0      57        0.0%
SFR56                0      0       0      57        0.0%
BANK26              50      0       0      58        0.0%
BITSFR57             0      0       0      58        0.0%
SFR57                0      0       0      58        0.0%
BITSFR58             0      0       0      59        0.0%
SFR58                0      0       0      59        0.0%
DATA                 0      0       9      59        0.0%
BITBANK27           50      0       0      60        0.0%
BITSFR59             0      0       0      60        0.0%
SFR59                0      0       0      60        0.0%
BANK27              50      0       0      61        0.0%
BITSFR60             0      0       0      61        0.0%
SFR60                0      0       0      61        0.0%
BITBANK28           50      0       0      62        0.0%
BITSFR61             0      0       0      62        0.0%
SFR61                0      0       0      62        0.0%
BANK28              50      0       0      63        0.0%
BITSFR62             0      0       0      63        0.0%
SFR62                0      0       0      63        0.0%
BITBANK29           50      0       0      64        0.0%
BITSFR63             0      0       0      64        0.0%
SFR63                0      0       0      64        0.0%
BANK29              50      0       0      65        0.0%
BITBANK30           50      0       0      66        0.0%
BANK30              50      0       0      67        0.0%
BITBANK31           50      0       0      68        0.0%
BANK31              50      0       0      69        0.0%
BITBANK32           50      0       0      70        0.0%
BANK32              50      0       0      71        0.0%
BITBANK33           50      0       0      72        0.0%
BANK33              50      0       0      73        0.0%
BITBANK34           50      0       0      74        0.0%
BANK34              50      0       0      75        0.0%
BITBANK35           50      0       0      76        0.0%
BANK35              50      0       0      77        0.0%
BITBANK36           50      0       0      78        0.0%
BANK36              50      0       0      79        0.0%
BITBANK37           50      0       0      80        0.0%
BANK37              50      0       0      81        0.0%
BITBANK38           50      0       0      82        0.0%
BANK38              50      0       0      83        0.0%
BITBANK39           50      0       0      84        0.0%
BANK39              50      0       0      85        0.0%
BITBANK40           50      0       0      86        0.0%
BANK40              50      0       0      87        0.0%
BITBANK41           50      0       0      88        0.0%
BANK41              50      0       0      89        0.0%
BITBANK42           50      0       0      90        0.0%
BANK42              50      0       0      91        0.0%
BITBANK43           50      0       0      92        0.0%
BANK43              50      0       0      93        0.0%
BITBANK44           50      0       0      94        0.0%
BANK44              50      0       0      95        0.0%
BITBANK45           50      0       0      96        0.0%
BANK45              50      0       0      97        0.0%
BITBANK46           50      0       0      98        0.0%
BANK46              50      0       0      99        0.0%
BITBANK47           50      0       0     100        0.0%
BANK47              50      0       0     101        0.0%
BITBANK48           50      0       0     102        0.0%
BANK48              50      0       0     103        0.0%
BITBANK49           50      0       0     104        0.0%
BANK49              50      0       0     105        0.0%
BITBANK50           50      0       0     106        0.0%
BANK50              50      0       0     107        0.0%


Microchip Technology PIC Macro Assembler V2.32 build 20210201212658 
Symbol Table                                                                                   Wed Sep 08 10:41:30 2021

                     u20 07E9                       u21 07E8                       u37 0664  
                     u47 066A                       u57 0672                       u67 0678  
                     u77 0680                       u87 0686                       u97 068E  
                    l941 0643                      l951 064A                      l943 0644  
                    l961 0651                      l953 064B                      l945 0646  
                    l971 0658                      l963 0652                      l955 064D  
                    l947 0647                      l939 063B                      l981 0670  
                    l973 065A                      l965 0654                      l957 064E  
                    l949 0648                      l991 0691                      l983 0675  
                    l975 065E                      l967 0655                      l959 064F  
                    l993 069A                      l985 067E                      l977 0662  
                    l969 0656                      l995 069F                      l987 0683  
                    l979 0667                      l997 06A8                      l989 068C  
                    l999 06AD                      u107 0694                      u117 069C  
                    u207 06D8                      u127 06A2                      u217 06E0  
                    u137 06AA                      u307 071C                      u227 06E6  
                    u147 06B0                      u317 0725                      u237 06ED  
                    u157 06B7                      u407 0763                      u327 072B  
                    u247 06F3                      u167 06BD                      u417 076B  
                    u337 0733                      u257 06FB                      u177 06C5  
                    u507 07A9                      u427 0771                      u347 0739  
                    u267 0701                      u187 06CB                      u517 07B1  
                    u437 0779                      u357 0741                      u277 0709  
                    u197 06D2                      u527 07B7                      u447 077F  
                    u367 0747                      u287 070F                      u537 07BF  
                    u457 0787                      u377 074F                      u297 0716  
                    u547 07C5                      u467 078D                      u387 0755  
                    u557 07CD                      u477 0795                      u397 075D  
                    u567 07D3                      u487 079B                      u577 07DB  
                    u497 07A3                      u587 07E1                      u597 07EF  
                    _col 0076                      _row 0077                      wreg 0009  
                   l1001 06B3                     l1011 06C0                     l1003 06B5  
                   l1101 0752                     l1021 06D0                     l1013 06C3  
                   l1005 06B6                     l1111 0760                     l1103 0754  
                   l1031 06DE                     l1023 06D1                     l1015 06C4  
                   l1007 06BA                     l1201 07DE                     l1121 076E  
                   l1113 0762                     l1105 0758                     l1041 06EB  
                   l1033 06DF                     l1025 06D5                     l1017 06C8  
                   l1009 06BC                     l1211 07F5                     l1203 07E0  
                   l1131 077C                     l1123 0770                     l1115 0766  
                   l1107 075B                     l1051 070C                     l1043 06F0  
                   l1035 06E3                     l1027 06D7                     l1019 06CA  
                   l1205 07E4                     l1141 078A                     l1133 077E  
                   l1125 0774                     l1117 0769                     l1109 075C  
                   l1061 071B                     l1053 0712                     l1045 06F9  
                   l1037 06E5                     l1029 06DB                     l1207 07E9  
                   l1151 0798                     l1143 078C                     l1135 0782  
                   l1127 0777                     l1119 076A                     l1071 0728  
                   l1063 071F                     l1055 0714                     l1047 06FE  
                   l1039 06E9                     l1209 07EA                     l1161 07A6  
                   l1153 079A                     l1145 0790                     l1137 0785  
                   l1129 0778                     l1081 0736                     l1073 072A  
                   l1065 0721                     l1057 0715                     l1049 0707  
                   l1171 07B4                     l1163 07A8                     l1155 079E  
                   l1147 0793                     l1139 0786                     l1091 0744  
                   l1083 0738                     l1075 072E                     l1067 0723  
                   l1059 0719                     l1181 07C2                     l1173 07B6  
                   l1165 07AC                     l1157 07A1                     l1149 0794  
                   l1093 0746                     l1085 073C                     l1077 0731  
                   l1069 0724                     l1191 07D0                     l1183 07C4  
                   l1175 07BA                     l1167 07AF                     l1159 07A2  
                   l1095 074A                     l1087 073F                     l1079 0732  
                   l1193 07D2                     l1185 07C8                     l1177 07BD  
                   l1169 07B0                     l1097 074D                     l1089 0740  
                   l1195 07D6                     l1187 07CB                     l1179 07BE  
                   l1099 074E                     l1197 07D9                     l1189 07CC  
                   l1199 07DA                     _LATD 0019                     _WPUB 1F44  
                   _WPUD 1F5A                     _main 063B                     btemp 007E  
                   start 0002                    ?_main 0070                    _TRISB 0012  
                  _TRISD 0014                    _start 0078                    wtemp0 007E  
        __initialization 07FA             __end_of_main 07FA                   ??_main 0074  
                 _ANSELB 1F43                   _ANSELD 1F59                   _ODCOND 1F5B  
__end_of__initialization 07FD           __pcstackCOMMON 0070               __pmaintext 063B  
   end_of_initialization 07FD                _PORTBbits 000D                _TRISBbits 0012  
              _TRISEbits 0015      start_initialization 07FA              __pbssCOMMON 0076  
              ___latbits 0004                 _LATBbits 0017                 _LATEbits 001A  
               _WPUBbits 1F44                 _WPUEbits 1F65               _ANSELBbits 1F43  
             _ANSELEbits 1F64            __size_of_main 01BF               _ODCONBbits 1F45  
             _ODCONEbits 1F66                 main@argc 0070                 main@argv 0072  
