

Microchip MPLAB XC8 Assembler V2.32 build 20210201212658 
                                                                                               Thu Jan 27 17:02:53 2022

Microchip MPLAB XC8 C Compiler v2.32 (Free license) build 20210201212658 Og1 
     1                           	processor	16F18877
     2                           	pagewidth 120
     3                           	opt	flic
     4                           	psect	stringtext1,global,class=STRCODE,delta=2,noexec
     5                           	psect	stringtext2,global,class=STRCODE,delta=2,noexec
     6                           	psect	stringtext3,global,class=STRCODE,delta=2,noexec
     7                           	psect	stringtext4,global,class=STRCODE,delta=2,noexec
     8                           	psect	stringtext5,global,class=STRCODE,delta=2,noexec
     9                           	psect	stringtext6,global,class=STRCODE,delta=2,noexec
    10                           	psect	stringtext7,global,class=STRCODE,delta=2,noexec
    11                           	psect	stringtext8,global,class=STRCODE,delta=2,noexec
    12                           	psect	cinit,global,class=CODE,merge=1,delta=2
    13                           	psect	bssCOMMON,global,class=COMMON,space=1,delta=1,noexec
    14                           	psect	bssBANK0,global,class=BANK0,space=1,delta=1,noexec
    15                           	psect	cstackCOMMON,global,class=COMMON,space=1,delta=1,noexec
    16                           	psect	cstackBANK0,global,class=BANK0,space=1,delta=1,noexec
    17                           	psect	maintext,global,class=CODE,merge=1,split=1,delta=2
    18                           	psect	text1,local,class=CODE,merge=1,delta=2
    19                           	psect	text2,local,class=CODE,merge=1,delta=2,group=1
    20                           	psect	text3,local,class=CODE,merge=1,delta=2,group=1
    21                           	psect	text4,local,class=CODE,merge=1,delta=2
    22                           	psect	text5,local,class=CODE,merge=1,delta=2
    23                           	psect	text6,local,class=CODE,merge=1,delta=2
    24                           	psect	text7,local,class=CODE,merge=1,delta=2
    25                           	psect	text8,local,class=CODE,merge=1,delta=2
    26                           	psect	text9,local,class=CODE,merge=1,delta=2,group=1
    27                           	psect	text10,local,class=CODE,merge=1,delta=2,group=1
    28                           	psect	text11,local,class=CODE,merge=1,delta=2,group=1
    29                           	psect	text12,local,class=CODE,merge=1,delta=2,group=1
    30                           	psect	text13,local,class=CODE,merge=1,delta=2
    31                           	psect	text14,local,class=CODE,merge=1,delta=2
    32                           	psect	text15,local,class=CODE,merge=1,delta=2
    33                           	psect	text16,local,class=CODE,merge=1,delta=2
    34                           	psect	text17,local,class=CODE,merge=1,delta=2
    35                           	psect	text18,local,class=CODE,merge=1,delta=2
    36                           	psect	intentry,global,class=CODE,delta=2
    37                           	psect	config,global,abs,ovrld,class=CONFIG,space=4,delta=2,noexec
    38                           	dabs	1,0x7E,2
    39  0000                     
    40                           ; Version 2.35
    41                           ; Generated 13/04/2021 GMT
    42                           ; 
    43                           ; Copyright © 2021, Microchip Technology Inc. and its subsidiaries ("Microchip")
    44                           ; All rights reserved.
    45                           ; 
    46                           ; This software is developed by Microchip Technology Inc. and its subsidiaries ("Microch
      +                          ip").
    47                           ; 
    48                           ; Redistribution and use in source and binary forms, with or without modification, are
    49                           ; permitted provided that the following conditions are met:
    50                           ; 
    51                           ;     1. Redistributions of source code must retain the above copyright notice, this lis
      +                          t of
    52                           ;        conditions and the following disclaimer.
    53                           ; 
    54                           ;     2. Redistributions in binary form must reproduce the above copyright notice, this 
      +                          list
    55                           ;        of conditions and the following disclaimer in the documentation and/or other
    56                           ;        materials provided with the distribution. Publication is not required when
    57                           ;        this file is used in an embedded application.
    58                           ; 
    59                           ;     3. Microchip's name may not be used to endorse or promote products derived from th
      +                          is
    60                           ;        software without specific prior written permission.
    61                           ; 
    62                           ; THIS SOFTWARE IS PROVIDED BY MICROCHIP "AS IS" AND ANY EXPRESS OR IMPLIED WARRANTIES,
    63                           ; INCLUDING, BUT NOT LIMITED TO, THE IMPLIED WARRANTIES OF MERCHANTABILITY AND FITNESS F
      +                          OR
    64                           ; PURPOSE ARE DISCLAIMED.  IN NO EVENT SHALL MICROCHIP BE LIABLE FOR ANY DIRECT, INDIREC
      +                          T,
    65                           ; INCIDENTAL, SPECIAL, EXEMPLARY, OR CONSEQUENTIAL DAMAGES (INCLUDING BUT NOT LIMITED TO
    66                           ; PROCUREMENT OF SUBSTITUTE GOODS OR SERVICES; LOSS OF USE, DATA OR PROFITS; OR BUSINESS
    67                           ; INTERRUPTION) HOWSOEVER CAUSED AND ON ANY THEORY OF LIABILITY, WHETHER IN CONTRACT, ST
      +                          RICT
    68                           ; LIABILITY, OR TORT (INCLUDING NEGLIGENCE OR OTHERWISE) ARISING IN ANY WAY OUT OF THE U
      +                          SE OF
    69                           ; THIS SOFTWARE, EVEN IF ADVISED OF THE POSSIBILITY OF SUCH DAMAGE.
    70                           ; 
    71                           ; 
    72                           ; Code-generator required, PIC16F18877 Definitions
    73                           ; 
    74                           ; SFR Addresses
    75  0000                     	;# 
    76  0001                     	;# 
    77  0002                     	;# 
    78  0003                     	;# 
    79  0004                     	;# 
    80  0005                     	;# 
    81  0006                     	;# 
    82  0007                     	;# 
    83  0008                     	;# 
    84  0009                     	;# 
    85  000A                     	;# 
    86  000B                     	;# 
    87  000C                     	;# 
    88  000D                     	;# 
    89  000E                     	;# 
    90  000F                     	;# 
    91  0010                     	;# 
    92  0011                     	;# 
    93  0012                     	;# 
    94  0013                     	;# 
    95  0014                     	;# 
    96  0015                     	;# 
    97  0016                     	;# 
    98  0017                     	;# 
    99  0018                     	;# 
   100  0019                     	;# 
   101  001A                     	;# 
   102  001C                     	;# 
   103  001C                     	;# 
   104  001D                     	;# 
   105  001D                     	;# 
   106  001E                     	;# 
   107  001F                     	;# 
   108  008C                     	;# 
   109  008C                     	;# 
   110  008D                     	;# 
   111  008E                     	;# 
   112  008E                     	;# 
   113  008F                     	;# 
   114  0090                     	;# 
   115  0090                     	;# 
   116  0091                     	;# 
   117  0093                     	;# 
   118  0094                     	;# 
   119  0095                     	;# 
   120  0096                     	;# 
   121  0097                     	;# 
   122  0098                     	;# 
   123  0099                     	;# 
   124  009A                     	;# 
   125  009B                     	;# 
   126  009C                     	;# 
   127  009D                     	;# 
   128  009E                     	;# 
   129  010C                     	;# 
   130  010D                     	;# 
   131  010E                     	;# 
   132  010E                     	;# 
   133  010F                     	;# 
   134  0110                     	;# 
   135  0110                     	;# 
   136  0111                     	;# 
   137  0112                     	;# 
   138  0112                     	;# 
   139  0113                     	;# 
   140  0114                     	;# 
   141  0114                     	;# 
   142  0115                     	;# 
   143  0116                     	;# 
   144  0116                     	;# 
   145  0117                     	;# 
   146  0119                     	;# 
   147  0119                     	;# 
   148  0119                     	;# 
   149  011A                     	;# 
   150  011A                     	;# 
   151  011A                     	;# 
   152  011B                     	;# 
   153  011B                     	;# 
   154  011B                     	;# 
   155  011B                     	;# 
   156  011B                     	;# 
   157  011C                     	;# 
   158  011C                     	;# 
   159  011C                     	;# 
   160  011D                     	;# 
   161  011D                     	;# 
   162  011D                     	;# 
   163  011E                     	;# 
   164  011E                     	;# 
   165  011E                     	;# 
   166  011F                     	;# 
   167  011F                     	;# 
   168  011F                     	;# 
   169  011F                     	;# 
   170  011F                     	;# 
   171  018C                     	;# 
   172  018D                     	;# 
   173  018E                     	;# 
   174  018F                     	;# 
   175  0190                     	;# 
   176  0191                     	;# 
   177  0192                     	;# 
   178  0196                     	;# 
   179  0197                     	;# 
   180  0198                     	;# 
   181  0199                     	;# 
   182  019A                     	;# 
   183  019B                     	;# 
   184  019C                     	;# 
   185  020C                     	;# 
   186  020C                     	;# 
   187  020D                     	;# 
   188  020E                     	;# 
   189  020F                     	;# 
   190  020F                     	;# 
   191  0210                     	;# 
   192  0210                     	;# 
   193  0211                     	;# 
   194  0211                     	;# 
   195  0212                     	;# 
   196  0212                     	;# 
   197  0213                     	;# 
   198  0214                     	;# 
   199  0215                     	;# 
   200  0215                     	;# 
   201  0216                     	;# 
   202  0216                     	;# 
   203  0217                     	;# 
   204  0217                     	;# 
   205  0218                     	;# 
   206  0218                     	;# 
   207  0219                     	;# 
   208  021A                     	;# 
   209  021B                     	;# 
   210  021B                     	;# 
   211  021C                     	;# 
   212  021C                     	;# 
   213  021D                     	;# 
   214  021D                     	;# 
   215  021E                     	;# 
   216  021F                     	;# 
   217  028C                     	;# 
   218  028C                     	;# 
   219  028D                     	;# 
   220  028D                     	;# 
   221  028E                     	;# 
   222  028F                     	;# 
   223  0290                     	;# 
   224  0290                     	;# 
   225  0291                     	;# 
   226  0292                     	;# 
   227  0292                     	;# 
   228  0293                     	;# 
   229  0293                     	;# 
   230  0294                     	;# 
   231  0295                     	;# 
   232  0296                     	;# 
   233  0296                     	;# 
   234  0297                     	;# 
   235  0298                     	;# 
   236  0298                     	;# 
   237  0299                     	;# 
   238  0299                     	;# 
   239  029A                     	;# 
   240  029B                     	;# 
   241  029C                     	;# 
   242  029C                     	;# 
   243  029D                     	;# 
   244  030C                     	;# 
   245  030C                     	;# 
   246  030D                     	;# 
   247  030E                     	;# 
   248  030F                     	;# 
   249  0310                     	;# 
   250  0310                     	;# 
   251  0311                     	;# 
   252  0312                     	;# 
   253  0313                     	;# 
   254  0314                     	;# 
   255  0314                     	;# 
   256  0315                     	;# 
   257  0316                     	;# 
   258  0317                     	;# 
   259  0318                     	;# 
   260  0318                     	;# 
   261  0319                     	;# 
   262  031A                     	;# 
   263  031B                     	;# 
   264  031C                     	;# 
   265  031C                     	;# 
   266  031D                     	;# 
   267  031E                     	;# 
   268  031F                     	;# 
   269  038C                     	;# 
   270  038C                     	;# 
   271  038D                     	;# 
   272  038E                     	;# 
   273  0390                     	;# 
   274  0390                     	;# 
   275  0391                     	;# 
   276  0392                     	;# 
   277  040C                     	;# 
   278  040D                     	;# 
   279  040E                     	;# 
   280  040F                     	;# 
   281  0410                     	;# 
   282  0411                     	;# 
   283  0416                     	;# 
   284  0416                     	;# 
   285  0417                     	;# 
   286  0418                     	;# 
   287  0418                     	;# 
   288  0419                     	;# 
   289  041A                     	;# 
   290  041A                     	;# 
   291  041B                     	;# 
   292  041C                     	;# 
   293  041C                     	;# 
   294  041D                     	;# 
   295  041E                     	;# 
   296  041F                     	;# 
   297  048C                     	;# 
   298  048C                     	;# 
   299  048D                     	;# 
   300  048E                     	;# 
   301  048F                     	;# 
   302  048F                     	;# 
   303  0490                     	;# 
   304  0491                     	;# 
   305  0492                     	;# 
   306  0492                     	;# 
   307  0493                     	;# 
   308  0494                     	;# 
   309  0495                     	;# 
   310  0495                     	;# 
   311  0496                     	;# 
   312  0497                     	;# 
   313  0498                     	;# 
   314  0499                     	;# 
   315  049A                     	;# 
   316  049B                     	;# 
   317  049C                     	;# 
   318  049D                     	;# 
   319  050C                     	;# 
   320  050C                     	;# 
   321  050D                     	;# 
   322  050E                     	;# 
   323  050F                     	;# 
   324  050F                     	;# 
   325  0510                     	;# 
   326  0511                     	;# 
   327  0512                     	;# 
   328  0512                     	;# 
   329  0513                     	;# 
   330  0514                     	;# 
   331  0515                     	;# 
   332  0515                     	;# 
   333  0516                     	;# 
   334  0517                     	;# 
   335  0518                     	;# 
   336  0519                     	;# 
   337  051A                     	;# 
   338  051B                     	;# 
   339  051C                     	;# 
   340  051D                     	;# 
   341  058C                     	;# 
   342  058C                     	;# 
   343  058D                     	;# 
   344  058E                     	;# 
   345  058F                     	;# 
   346  058F                     	;# 
   347  0590                     	;# 
   348  0591                     	;# 
   349  0592                     	;# 
   350  0593                     	;# 
   351  060C                     	;# 
   352  060D                     	;# 
   353  060E                     	;# 
   354  060F                     	;# 
   355  0610                     	;# 
   356  0611                     	;# 
   357  0612                     	;# 
   358  0613                     	;# 
   359  0614                     	;# 
   360  0616                     	;# 
   361  0617                     	;# 
   362  0618                     	;# 
   363  0619                     	;# 
   364  061A                     	;# 
   365  061B                     	;# 
   366  061C                     	;# 
   367  061D                     	;# 
   368  061E                     	;# 
   369  068C                     	;# 
   370  068D                     	;# 
   371  068E                     	;# 
   372  068F                     	;# 
   373  0690                     	;# 
   374  0691                     	;# 
   375  0692                     	;# 
   376  0693                     	;# 
   377  0694                     	;# 
   378  070C                     	;# 
   379  070D                     	;# 
   380  070E                     	;# 
   381  070F                     	;# 
   382  0710                     	;# 
   383  0711                     	;# 
   384  0712                     	;# 
   385  0713                     	;# 
   386  0714                     	;# 
   387  0716                     	;# 
   388  0717                     	;# 
   389  0718                     	;# 
   390  0719                     	;# 
   391  071A                     	;# 
   392  071B                     	;# 
   393  071C                     	;# 
   394  071D                     	;# 
   395  071E                     	;# 
   396  0796                     	;# 
   397  0797                     	;# 
   398  0798                     	;# 
   399  0799                     	;# 
   400  079A                     	;# 
   401  079B                     	;# 
   402  080C                     	;# 
   403  080D                     	;# 
   404  080E                     	;# 
   405  080F                     	;# 
   406  0810                     	;# 
   407  0811                     	;# 
   408  0812                     	;# 
   409  0813                     	;# 
   410  0814                     	;# 
   411  081A                     	;# 
   412  081B                     	;# 
   413  081C                     	;# 
   414  081D                     	;# 
   415  081E                     	;# 
   416  081F                     	;# 
   417  088C                     	;# 
   418  088D                     	;# 
   419  088E                     	;# 
   420  088F                     	;# 
   421  0890                     	;# 
   422  0891                     	;# 
   423  0892                     	;# 
   424  0893                     	;# 
   425  0895                     	;# 
   426  0896                     	;# 
   427  0897                     	;# 
   428  0898                     	;# 
   429  0899                     	;# 
   430  089A                     	;# 
   431  089B                     	;# 
   432  090C                     	;# 
   433  090E                     	;# 
   434  090F                     	;# 
   435  091F                     	;# 
   436  098F                     	;# 
   437  098F                     	;# 
   438  0990                     	;# 
   439  0991                     	;# 
   440  0992                     	;# 
   441  0993                     	;# 
   442  0994                     	;# 
   443  0995                     	;# 
   444  0996                     	;# 
   445  0997                     	;# 
   446  1E0F                     	;# 
   447  1E10                     	;# 
   448  1E11                     	;# 
   449  1E12                     	;# 
   450  1E13                     	;# 
   451  1E14                     	;# 
   452  1E15                     	;# 
   453  1E16                     	;# 
   454  1E17                     	;# 
   455  1E18                     	;# 
   456  1E19                     	;# 
   457  1E1A                     	;# 
   458  1E1B                     	;# 
   459  1E1C                     	;# 
   460  1E1D                     	;# 
   461  1E1E                     	;# 
   462  1E1F                     	;# 
   463  1E20                     	;# 
   464  1E21                     	;# 
   465  1E22                     	;# 
   466  1E23                     	;# 
   467  1E24                     	;# 
   468  1E25                     	;# 
   469  1E26                     	;# 
   470  1E27                     	;# 
   471  1E28                     	;# 
   472  1E29                     	;# 
   473  1E2A                     	;# 
   474  1E2B                     	;# 
   475  1E2C                     	;# 
   476  1E2D                     	;# 
   477  1E2E                     	;# 
   478  1E2F                     	;# 
   479  1E30                     	;# 
   480  1E31                     	;# 
   481  1E32                     	;# 
   482  1E33                     	;# 
   483  1E34                     	;# 
   484  1E35                     	;# 
   485  1E36                     	;# 
   486  1E37                     	;# 
   487  1E8F                     	;# 
   488  1E90                     	;# 
   489  1E91                     	;# 
   490  1E92                     	;# 
   491  1E93                     	;# 
   492  1E94                     	;# 
   493  1E95                     	;# 
   494  1E96                     	;# 
   495  1E97                     	;# 
   496  1E9C                     	;# 
   497  1E9D                     	;# 
   498  1E9E                     	;# 
   499  1EA1                     	;# 
   500  1EA2                     	;# 
   501  1EA3                     	;# 
   502  1EA4                     	;# 
   503  1EA5                     	;# 
   504  1EA9                     	;# 
   505  1EAA                     	;# 
   506  1EAB                     	;# 
   507  1EAC                     	;# 
   508  1EB1                     	;# 
   509  1EB2                     	;# 
   510  1EB3                     	;# 
   511  1EB8                     	;# 
   512  1EB9                     	;# 
   513  1EBA                     	;# 
   514  1EBB                     	;# 
   515  1EBC                     	;# 
   516  1EBD                     	;# 
   517  1EBE                     	;# 
   518  1EC3                     	;# 
   519  1EC5                     	;# 
   520  1EC6                     	;# 
   521  1EC7                     	;# 
   522  1EC8                     	;# 
   523  1EC9                     	;# 
   524  1ECA                     	;# 
   525  1ECB                     	;# 
   526  1ECC                     	;# 
   527  1F10                     	;# 
   528  1F11                     	;# 
   529  1F12                     	;# 
   530  1F13                     	;# 
   531  1F14                     	;# 
   532  1F15                     	;# 
   533  1F16                     	;# 
   534  1F17                     	;# 
   535  1F18                     	;# 
   536  1F19                     	;# 
   537  1F1A                     	;# 
   538  1F1B                     	;# 
   539  1F1C                     	;# 
   540  1F1D                     	;# 
   541  1F1E                     	;# 
   542  1F1F                     	;# 
   543  1F20                     	;# 
   544  1F21                     	;# 
   545  1F22                     	;# 
   546  1F23                     	;# 
   547  1F24                     	;# 
   548  1F25                     	;# 
   549  1F26                     	;# 
   550  1F27                     	;# 
   551  1F28                     	;# 
   552  1F29                     	;# 
   553  1F2A                     	;# 
   554  1F2B                     	;# 
   555  1F2C                     	;# 
   556  1F2D                     	;# 
   557  1F2E                     	;# 
   558  1F2F                     	;# 
   559  1F30                     	;# 
   560  1F31                     	;# 
   561  1F32                     	;# 
   562  1F38                     	;# 
   563  1F39                     	;# 
   564  1F3A                     	;# 
   565  1F3B                     	;# 
   566  1F3C                     	;# 
   567  1F3D                     	;# 
   568  1F3E                     	;# 
   569  1F3F                     	;# 
   570  1F40                     	;# 
   571  1F41                     	;# 
   572  1F43                     	;# 
   573  1F44                     	;# 
   574  1F45                     	;# 
   575  1F46                     	;# 
   576  1F47                     	;# 
   577  1F48                     	;# 
   578  1F49                     	;# 
   579  1F4A                     	;# 
   580  1F4B                     	;# 
   581  1F4C                     	;# 
   582  1F4E                     	;# 
   583  1F4F                     	;# 
   584  1F50                     	;# 
   585  1F51                     	;# 
   586  1F52                     	;# 
   587  1F53                     	;# 
   588  1F54                     	;# 
   589  1F55                     	;# 
   590  1F56                     	;# 
   591  1F57                     	;# 
   592  1F59                     	;# 
   593  1F5A                     	;# 
   594  1F5B                     	;# 
   595  1F5C                     	;# 
   596  1F5D                     	;# 
   597  1F61                     	;# 
   598  1F62                     	;# 
   599  1F64                     	;# 
   600  1F65                     	;# 
   601  1F66                     	;# 
   602  1F67                     	;# 
   603  1F68                     	;# 
   604  1F69                     	;# 
   605  1F6A                     	;# 
   606  1F6B                     	;# 
   607  1F6C                     	;# 
   608  1F6D                     	;# 
   609  1FE4                     	;# 
   610  1FE5                     	;# 
   611  1FE6                     	;# 
   612  1FE7                     	;# 
   613  1FE8                     	;# 
   614  1FE9                     	;# 
   615  1FEA                     	;# 
   616  1FEB                     	;# 
   617  1FED                     	;# 
   618  1FEE                     	;# 
   619  1FEF                     	;# 
   620  0000                     	;# 
   621  0001                     	;# 
   622  0002                     	;# 
   623  0003                     	;# 
   624  0004                     	;# 
   625  0005                     	;# 
   626  0006                     	;# 
   627  0007                     	;# 
   628  0008                     	;# 
   629  0009                     	;# 
   630  000A                     	;# 
   631  000B                     	;# 
   632  000C                     	;# 
   633  000D                     	;# 
   634  000E                     	;# 
   635  000F                     	;# 
   636  0010                     	;# 
   637  0011                     	;# 
   638  0012                     	;# 
   639  0013                     	;# 
   640  0014                     	;# 
   641  0015                     	;# 
   642  0016                     	;# 
   643  0017                     	;# 
   644  0018                     	;# 
   645  0019                     	;# 
   646  001A                     	;# 
   647  001C                     	;# 
   648  001C                     	;# 
   649  001D                     	;# 
   650  001D                     	;# 
   651  001E                     	;# 
   652  001F                     	;# 
   653  008C                     	;# 
   654  008C                     	;# 
   655  008D                     	;# 
   656  008E                     	;# 
   657  008E                     	;# 
   658  008F                     	;# 
   659  0090                     	;# 
   660  0090                     	;# 
   661  0091                     	;# 
   662  0093                     	;# 
   663  0094                     	;# 
   664  0095                     	;# 
   665  0096                     	;# 
   666  0097                     	;# 
   667  0098                     	;# 
   668  0099                     	;# 
   669  009A                     	;# 
   670  009B                     	;# 
   671  009C                     	;# 
   672  009D                     	;# 
   673  009E                     	;# 
   674  010C                     	;# 
   675  010D                     	;# 
   676  010E                     	;# 
   677  010E                     	;# 
   678  010F                     	;# 
   679  0110                     	;# 
   680  0110                     	;# 
   681  0111                     	;# 
   682  0112                     	;# 
   683  0112                     	;# 
   684  0113                     	;# 
   685  0114                     	;# 
   686  0114                     	;# 
   687  0115                     	;# 
   688  0116                     	;# 
   689  0116                     	;# 
   690  0117                     	;# 
   691  0119                     	;# 
   692  0119                     	;# 
   693  0119                     	;# 
   694  011A                     	;# 
   695  011A                     	;# 
   696  011A                     	;# 
   697  011B                     	;# 
   698  011B                     	;# 
   699  011B                     	;# 
   700  011B                     	;# 
   701  011B                     	;# 
   702  011C                     	;# 
   703  011C                     	;# 
   704  011C                     	;# 
   705  011D                     	;# 
   706  011D                     	;# 
   707  011D                     	;# 
   708  011E                     	;# 
   709  011E                     	;# 
   710  011E                     	;# 
   711  011F                     	;# 
   712  011F                     	;# 
   713  011F                     	;# 
   714  011F                     	;# 
   715  011F                     	;# 
   716  018C                     	;# 
   717  018D                     	;# 
   718  018E                     	;# 
   719  018F                     	;# 
   720  0190                     	;# 
   721  0191                     	;# 
   722  0192                     	;# 
   723  0196                     	;# 
   724  0197                     	;# 
   725  0198                     	;# 
   726  0199                     	;# 
   727  019A                     	;# 
   728  019B                     	;# 
   729  019C                     	;# 
   730  020C                     	;# 
   731  020C                     	;# 
   732  020D                     	;# 
   733  020E                     	;# 
   734  020F                     	;# 
   735  020F                     	;# 
   736  0210                     	;# 
   737  0210                     	;# 
   738  0211                     	;# 
   739  0211                     	;# 
   740  0212                     	;# 
   741  0212                     	;# 
   742  0213                     	;# 
   743  0214                     	;# 
   744  0215                     	;# 
   745  0215                     	;# 
   746  0216                     	;# 
   747  0216                     	;# 
   748  0217                     	;# 
   749  0217                     	;# 
   750  0218                     	;# 
   751  0218                     	;# 
   752  0219                     	;# 
   753  021A                     	;# 
   754  021B                     	;# 
   755  021B                     	;# 
   756  021C                     	;# 
   757  021C                     	;# 
   758  021D                     	;# 
   759  021D                     	;# 
   760  021E                     	;# 
   761  021F                     	;# 
   762  028C                     	;# 
   763  028C                     	;# 
   764  028D                     	;# 
   765  028D                     	;# 
   766  028E                     	;# 
   767  028F                     	;# 
   768  0290                     	;# 
   769  0290                     	;# 
   770  0291                     	;# 
   771  0292                     	;# 
   772  0292                     	;# 
   773  0293                     	;# 
   774  0293                     	;# 
   775  0294                     	;# 
   776  0295                     	;# 
   777  0296                     	;# 
   778  0296                     	;# 
   779  0297                     	;# 
   780  0298                     	;# 
   781  0298                     	;# 
   782  0299                     	;# 
   783  0299                     	;# 
   784  029A                     	;# 
   785  029B                     	;# 
   786  029C                     	;# 
   787  029C                     	;# 
   788  029D                     	;# 
   789  030C                     	;# 
   790  030C                     	;# 
   791  030D                     	;# 
   792  030E                     	;# 
   793  030F                     	;# 
   794  0310                     	;# 
   795  0310                     	;# 
   796  0311                     	;# 
   797  0312                     	;# 
   798  0313                     	;# 
   799  0314                     	;# 
   800  0314                     	;# 
   801  0315                     	;# 
   802  0316                     	;# 
   803  0317                     	;# 
   804  0318                     	;# 
   805  0318                     	;# 
   806  0319                     	;# 
   807  031A                     	;# 
   808  031B                     	;# 
   809  031C                     	;# 
   810  031C                     	;# 
   811  031D                     	;# 
   812  031E                     	;# 
   813  031F                     	;# 
   814  038C                     	;# 
   815  038C                     	;# 
   816  038D                     	;# 
   817  038E                     	;# 
   818  0390                     	;# 
   819  0390                     	;# 
   820  0391                     	;# 
   821  0392                     	;# 
   822  040C                     	;# 
   823  040D                     	;# 
   824  040E                     	;# 
   825  040F                     	;# 
   826  0410                     	;# 
   827  0411                     	;# 
   828  0416                     	;# 
   829  0416                     	;# 
   830  0417                     	;# 
   831  0418                     	;# 
   832  0418                     	;# 
   833  0419                     	;# 
   834  041A                     	;# 
   835  041A                     	;# 
   836  041B                     	;# 
   837  041C                     	;# 
   838  041C                     	;# 
   839  041D                     	;# 
   840  041E                     	;# 
   841  041F                     	;# 
   842  048C                     	;# 
   843  048C                     	;# 
   844  048D                     	;# 
   845  048E                     	;# 
   846  048F                     	;# 
   847  048F                     	;# 
   848  0490                     	;# 
   849  0491                     	;# 
   850  0492                     	;# 
   851  0492                     	;# 
   852  0493                     	;# 
   853  0494                     	;# 
   854  0495                     	;# 
   855  0495                     	;# 
   856  0496                     	;# 
   857  0497                     	;# 
   858  0498                     	;# 
   859  0499                     	;# 
   860  049A                     	;# 
   861  049B                     	;# 
   862  049C                     	;# 
   863  049D                     	;# 
   864  050C                     	;# 
   865  050C                     	;# 
   866  050D                     	;# 
   867  050E                     	;# 
   868  050F                     	;# 
   869  050F                     	;# 
   870  0510                     	;# 
   871  0511                     	;# 
   872  0512                     	;# 
   873  0512                     	;# 
   874  0513                     	;# 
   875  0514                     	;# 
   876  0515                     	;# 
   877  0515                     	;# 
   878  0516                     	;# 
   879  0517                     	;# 
   880  0518                     	;# 
   881  0519                     	;# 
   882  051A                     	;# 
   883  051B                     	;# 
   884  051C                     	;# 
   885  051D                     	;# 
   886  058C                     	;# 
   887  058C                     	;# 
   888  058D                     	;# 
   889  058E                     	;# 
   890  058F                     	;# 
   891  058F                     	;# 
   892  0590                     	;# 
   893  0591                     	;# 
   894  0592                     	;# 
   895  0593                     	;# 
   896  060C                     	;# 
   897  060D                     	;# 
   898  060E                     	;# 
   899  060F                     	;# 
   900  0610                     	;# 
   901  0611                     	;# 
   902  0612                     	;# 
   903  0613                     	;# 
   904  0614                     	;# 
   905  0616                     	;# 
   906  0617                     	;# 
   907  0618                     	;# 
   908  0619                     	;# 
   909  061A                     	;# 
   910  061B                     	;# 
   911  061C                     	;# 
   912  061D                     	;# 
   913  061E                     	;# 
   914  068C                     	;# 
   915  068D                     	;# 
   916  068E                     	;# 
   917  068F                     	;# 
   918  0690                     	;# 
   919  0691                     	;# 
   920  0692                     	;# 
   921  0693                     	;# 
   922  0694                     	;# 
   923  070C                     	;# 
   924  070D                     	;# 
   925  070E                     	;# 
   926  070F                     	;# 
   927  0710                     	;# 
   928  0711                     	;# 
   929  0712                     	;# 
   930  0713                     	;# 
   931  0714                     	;# 
   932  0716                     	;# 
   933  0717                     	;# 
   934  0718                     	;# 
   935  0719                     	;# 
   936  071A                     	;# 
   937  071B                     	;# 
   938  071C                     	;# 
   939  071D                     	;# 
   940  071E                     	;# 
   941  0796                     	;# 
   942  0797                     	;# 
   943  0798                     	;# 
   944  0799                     	;# 
   945  079A                     	;# 
   946  079B                     	;# 
   947  080C                     	;# 
   948  080D                     	;# 
   949  080E                     	;# 
   950  080F                     	;# 
   951  0810                     	;# 
   952  0811                     	;# 
   953  0812                     	;# 
   954  0813                     	;# 
   955  0814                     	;# 
   956  081A                     	;# 
   957  081B                     	;# 
   958  081C                     	;# 
   959  081D                     	;# 
   960  081E                     	;# 
   961  081F                     	;# 
   962  088C                     	;# 
   963  088D                     	;# 
   964  088E                     	;# 
   965  088F                     	;# 
   966  0890                     	;# 
   967  0891                     	;# 
   968  0892                     	;# 
   969  0893                     	;# 
   970  0895                     	;# 
   971  0896                     	;# 
   972  0897                     	;# 
   973  0898                     	;# 
   974  0899                     	;# 
   975  089A                     	;# 
   976  089B                     	;# 
   977  090C                     	;# 
   978  090E                     	;# 
   979  090F                     	;# 
   980  091F                     	;# 
   981  098F                     	;# 
   982  098F                     	;# 
   983  0990                     	;# 
   984  0991                     	;# 
   985  0992                     	;# 
   986  0993                     	;# 
   987  0994                     	;# 
   988  0995                     	;# 
   989  0996                     	;# 
   990  0997                     	;# 
   991  1E0F                     	;# 
   992  1E10                     	;# 
   993  1E11                     	;# 
   994  1E12                     	;# 
   995  1E13                     	;# 
   996  1E14                     	;# 
   997  1E15                     	;# 
   998  1E16                     	;# 
   999  1E17                     	;# 
  1000  1E18                     	;# 
  1001  1E19                     	;# 
  1002  1E1A                     	;# 
  1003  1E1B                     	;# 
  1004  1E1C                     	;# 
  1005  1E1D                     	;# 
  1006  1E1E                     	;# 
  1007  1E1F                     	;# 
  1008  1E20                     	;# 
  1009  1E21                     	;# 
  1010  1E22                     	;# 
  1011  1E23                     	;# 
  1012  1E24                     	;# 
  1013  1E25                     	;# 
  1014  1E26                     	;# 
  1015  1E27                     	;# 
  1016  1E28                     	;# 
  1017  1E29                     	;# 
  1018  1E2A                     	;# 
  1019  1E2B                     	;# 
  1020  1E2C                     	;# 
  1021  1E2D                     	;# 
  1022  1E2E                     	;# 
  1023  1E2F                     	;# 
  1024  1E30                     	;# 
  1025  1E31                     	;# 
  1026  1E32                     	;# 
  1027  1E33                     	;# 
  1028  1E34                     	;# 
  1029  1E35                     	;# 
  1030  1E36                     	;# 
  1031  1E37                     	;# 
  1032  1E8F                     	;# 
  1033  1E90                     	;# 
  1034  1E91                     	;# 
  1035  1E92                     	;# 
  1036  1E93                     	;# 
  1037  1E94                     	;# 
  1038  1E95                     	;# 
  1039  1E96                     	;# 
  1040  1E97                     	;# 
  1041  1E9C                     	;# 
  1042  1E9D                     	;# 
  1043  1E9E                     	;# 
  1044  1EA1                     	;# 
  1045  1EA2                     	;# 
  1046  1EA3                     	;# 
  1047  1EA4                     	;# 
  1048  1EA5                     	;# 
  1049  1EA9                     	;# 
  1050  1EAA                     	;# 
  1051  1EAB                     	;# 
  1052  1EAC                     	;# 
  1053  1EB1                     	;# 
  1054  1EB2                     	;# 
  1055  1EB3                     	;# 
  1056  1EB8                     	;# 
  1057  1EB9                     	;# 
  1058  1EBA                     	;# 
  1059  1EBB                     	;# 
  1060  1EBC                     	;# 
  1061  1EBD                     	;# 
  1062  1EBE                     	;# 
  1063  1EC3                     	;# 
  1064  1EC5                     	;# 
  1065  1EC6                     	;# 
  1066  1EC7                     	;# 
  1067  1EC8                     	;# 
  1068  1EC9                     	;# 
  1069  1ECA                     	;# 
  1070  1ECB                     	;# 
  1071  1ECC                     	;# 
  1072  1F10                     	;# 
  1073  1F11                     	;# 
  1074  1F12                     	;# 
  1075  1F13                     	;# 
  1076  1F14                     	;# 
  1077  1F15                     	;# 
  1078  1F16                     	;# 
  1079  1F17                     	;# 
  1080  1F18                     	;# 
  1081  1F19                     	;# 
  1082  1F1A                     	;# 
  1083  1F1B                     	;# 
  1084  1F1C                     	;# 
  1085  1F1D                     	;# 
  1086  1F1E                     	;# 
  1087  1F1F                     	;# 
  1088  1F20                     	;# 
  1089  1F21                     	;# 
  1090  1F22                     	;# 
  1091  1F23                     	;# 
  1092  1F24                     	;# 
  1093  1F25                     	;# 
  1094  1F26                     	;# 
  1095  1F27                     	;# 
  1096  1F28                     	;# 
  1097  1F29                     	;# 
  1098  1F2A                     	;# 
  1099  1F2B                     	;# 
  1100  1F2C                     	;# 
  1101  1F2D                     	;# 
  1102  1F2E                     	;# 
  1103  1F2F                     	;# 
  1104  1F30                     	;# 
  1105  1F31                     	;# 
  1106  1F32                     	;# 
  1107  1F38                     	;# 
  1108  1F39                     	;# 
  1109  1F3A                     	;# 
  1110  1F3B                     	;# 
  1111  1F3C                     	;# 
  1112  1F3D                     	;# 
  1113  1F3E                     	;# 
  1114  1F3F                     	;# 
  1115  1F40                     	;# 
  1116  1F41                     	;# 
  1117  1F43                     	;# 
  1118  1F44                     	;# 
  1119  1F45                     	;# 
  1120  1F46                     	;# 
  1121  1F47                     	;# 
  1122  1F48                     	;# 
  1123  1F49                     	;# 
  1124  1F4A                     	;# 
  1125  1F4B                     	;# 
  1126  1F4C                     	;# 
  1127  1F4E                     	;# 
  1128  1F4F                     	;# 
  1129  1F50                     	;# 
  1130  1F51                     	;# 
  1131  1F52                     	;# 
  1132  1F53                     	;# 
  1133  1F54                     	;# 
  1134  1F55                     	;# 
  1135  1F56                     	;# 
  1136  1F57                     	;# 
  1137  1F59                     	;# 
  1138  1F5A                     	;# 
  1139  1F5B                     	;# 
  1140  1F5C                     	;# 
  1141  1F5D                     	;# 
  1142  1F61                     	;# 
  1143  1F62                     	;# 
  1144  1F64                     	;# 
  1145  1F65                     	;# 
  1146  1F66                     	;# 
  1147  1F67                     	;# 
  1148  1F68                     	;# 
  1149  1F69                     	;# 
  1150  1F6A                     	;# 
  1151  1F6B                     	;# 
  1152  1F6C                     	;# 
  1153  1F6D                     	;# 
  1154  1FE4                     	;# 
  1155  1FE5                     	;# 
  1156  1FE6                     	;# 
  1157  1FE7                     	;# 
  1158  1FE8                     	;# 
  1159  1FE9                     	;# 
  1160  1FEA                     	;# 
  1161  1FEB                     	;# 
  1162  1FED                     	;# 
  1163  1FEE                     	;# 
  1164  1FEF                     	;# 
  1165  0000                     	;# 
  1166  0001                     	;# 
  1167  0002                     	;# 
  1168  0003                     	;# 
  1169  0004                     	;# 
  1170  0005                     	;# 
  1171  0006                     	;# 
  1172  0007                     	;# 
  1173  0008                     	;# 
  1174  0009                     	;# 
  1175  000A                     	;# 
  1176  000B                     	;# 
  1177  000C                     	;# 
  1178  000D                     	;# 
  1179  000E                     	;# 
  1180  000F                     	;# 
  1181  0010                     	;# 
  1182  0011                     	;# 
  1183  0012                     	;# 
  1184  0013                     	;# 
  1185  0014                     	;# 
  1186  0015                     	;# 
  1187  0016                     	;# 
  1188  0017                     	;# 
  1189  0018                     	;# 
  1190  0019                     	;# 
  1191  001A                     	;# 
  1192  001C                     	;# 
  1193  001C                     	;# 
  1194  001D                     	;# 
  1195  001D                     	;# 
  1196  001E                     	;# 
  1197  001F                     	;# 
  1198  008C                     	;# 
  1199  008C                     	;# 
  1200  008D                     	;# 
  1201  008E                     	;# 
  1202  008E                     	;# 
  1203  008F                     	;# 
  1204  0090                     	;# 
  1205  0090                     	;# 
  1206  0091                     	;# 
  1207  0093                     	;# 
  1208  0094                     	;# 
  1209  0095                     	;# 
  1210  0096                     	;# 
  1211  0097                     	;# 
  1212  0098                     	;# 
  1213  0099                     	;# 
  1214  009A                     	;# 
  1215  009B                     	;# 
  1216  009C                     	;# 
  1217  009D                     	;# 
  1218  009E                     	;# 
  1219  010C                     	;# 
  1220  010D                     	;# 
  1221  010E                     	;# 
  1222  010E                     	;# 
  1223  010F                     	;# 
  1224  0110                     	;# 
  1225  0110                     	;# 
  1226  0111                     	;# 
  1227  0112                     	;# 
  1228  0112                     	;# 
  1229  0113                     	;# 
  1230  0114                     	;# 
  1231  0114                     	;# 
  1232  0115                     	;# 
  1233  0116                     	;# 
  1234  0116                     	;# 
  1235  0117                     	;# 
  1236  0119                     	;# 
  1237  0119                     	;# 
  1238  0119                     	;# 
  1239  011A                     	;# 
  1240  011A                     	;# 
  1241  011A                     	;# 
  1242  011B                     	;# 
  1243  011B                     	;# 
  1244  011B                     	;# 
  1245  011B                     	;# 
  1246  011B                     	;# 
  1247  011C                     	;# 
  1248  011C                     	;# 
  1249  011C                     	;# 
  1250  011D                     	;# 
  1251  011D                     	;# 
  1252  011D                     	;# 
  1253  011E                     	;# 
  1254  011E                     	;# 
  1255  011E                     	;# 
  1256  011F                     	;# 
  1257  011F                     	;# 
  1258  011F                     	;# 
  1259  011F                     	;# 
  1260  011F                     	;# 
  1261  018C                     	;# 
  1262  018D                     	;# 
  1263  018E                     	;# 
  1264  018F                     	;# 
  1265  0190                     	;# 
  1266  0191                     	;# 
  1267  0192                     	;# 
  1268  0196                     	;# 
  1269  0197                     	;# 
  1270  0198                     	;# 
  1271  0199                     	;# 
  1272  019A                     	;# 
  1273  019B                     	;# 
  1274  019C                     	;# 
  1275  020C                     	;# 
  1276  020C                     	;# 
  1277  020D                     	;# 
  1278  020E                     	;# 
  1279  020F                     	;# 
  1280  020F                     	;# 
  1281  0210                     	;# 
  1282  0210                     	;# 
  1283  0211                     	;# 
  1284  0211                     	;# 
  1285  0212                     	;# 
  1286  0212                     	;# 
  1287  0213                     	;# 
  1288  0214                     	;# 
  1289  0215                     	;# 
  1290  0215                     	;# 
  1291  0216                     	;# 
  1292  0216                     	;# 
  1293  0217                     	;# 
  1294  0217                     	;# 
  1295  0218                     	;# 
  1296  0218                     	;# 
  1297  0219                     	;# 
  1298  021A                     	;# 
  1299  021B                     	;# 
  1300  021B                     	;# 
  1301  021C                     	;# 
  1302  021C                     	;# 
  1303  021D                     	;# 
  1304  021D                     	;# 
  1305  021E                     	;# 
  1306  021F                     	;# 
  1307  028C                     	;# 
  1308  028C                     	;# 
  1309  028D                     	;# 
  1310  028D                     	;# 
  1311  028E                     	;# 
  1312  028F                     	;# 
  1313  0290                     	;# 
  1314  0290                     	;# 
  1315  0291                     	;# 
  1316  0292                     	;# 
  1317  0292                     	;# 
  1318  0293                     	;# 
  1319  0293                     	;# 
  1320  0294                     	;# 
  1321  0295                     	;# 
  1322  0296                     	;# 
  1323  0296                     	;# 
  1324  0297                     	;# 
  1325  0298                     	;# 
  1326  0298                     	;# 
  1327  0299                     	;# 
  1328  0299                     	;# 
  1329  029A                     	;# 
  1330  029B                     	;# 
  1331  029C                     	;# 
  1332  029C                     	;# 
  1333  029D                     	;# 
  1334  030C                     	;# 
  1335  030C                     	;# 
  1336  030D                     	;# 
  1337  030E                     	;# 
  1338  030F                     	;# 
  1339  0310                     	;# 
  1340  0310                     	;# 
  1341  0311                     	;# 
  1342  0312                     	;# 
  1343  0313                     	;# 
  1344  0314                     	;# 
  1345  0314                     	;# 
  1346  0315                     	;# 
  1347  0316                     	;# 
  1348  0317                     	;# 
  1349  0318                     	;# 
  1350  0318                     	;# 
  1351  0319                     	;# 
  1352  031A                     	;# 
  1353  031B                     	;# 
  1354  031C                     	;# 
  1355  031C                     	;# 
  1356  031D                     	;# 
  1357  031E                     	;# 
  1358  031F                     	;# 
  1359  038C                     	;# 
  1360  038C                     	;# 
  1361  038D                     	;# 
  1362  038E                     	;# 
  1363  0390                     	;# 
  1364  0390                     	;# 
  1365  0391                     	;# 
  1366  0392                     	;# 
  1367  040C                     	;# 
  1368  040D                     	;# 
  1369  040E                     	;# 
  1370  040F                     	;# 
  1371  0410                     	;# 
  1372  0411                     	;# 
  1373  0416                     	;# 
  1374  0416                     	;# 
  1375  0417                     	;# 
  1376  0418                     	;# 
  1377  0418                     	;# 
  1378  0419                     	;# 
  1379  041A                     	;# 
  1380  041A                     	;# 
  1381  041B                     	;# 
  1382  041C                     	;# 
  1383  041C                     	;# 
  1384  041D                     	;# 
  1385  041E                     	;# 
  1386  041F                     	;# 
  1387  048C                     	;# 
  1388  048C                     	;# 
  1389  048D                     	;# 
  1390  048E                     	;# 
  1391  048F                     	;# 
  1392  048F                     	;# 
  1393  0490                     	;# 
  1394  0491                     	;# 
  1395  0492                     	;# 
  1396  0492                     	;# 
  1397  0493                     	;# 
  1398  0494                     	;# 
  1399  0495                     	;# 
  1400  0495                     	;# 
  1401  0496                     	;# 
  1402  0497                     	;# 
  1403  0498                     	;# 
  1404  0499                     	;# 
  1405  049A                     	;# 
  1406  049B                     	;# 
  1407  049C                     	;# 
  1408  049D                     	;# 
  1409  050C                     	;# 
  1410  050C                     	;# 
  1411  050D                     	;# 
  1412  050E                     	;# 
  1413  050F                     	;# 
  1414  050F                     	;# 
  1415  0510                     	;# 
  1416  0511                     	;# 
  1417  0512                     	;# 
  1418  0512                     	;# 
  1419  0513                     	;# 
  1420  0514                     	;# 
  1421  0515                     	;# 
  1422  0515                     	;# 
  1423  0516                     	;# 
  1424  0517                     	;# 
  1425  0518                     	;# 
  1426  0519                     	;# 
  1427  051A                     	;# 
  1428  051B                     	;# 
  1429  051C                     	;# 
  1430  051D                     	;# 
  1431  058C                     	;# 
  1432  058C                     	;# 
  1433  058D                     	;# 
  1434  058E                     	;# 
  1435  058F                     	;# 
  1436  058F                     	;# 
  1437  0590                     	;# 
  1438  0591                     	;# 
  1439  0592                     	;# 
  1440  0593                     	;# 
  1441  060C                     	;# 
  1442  060D                     	;# 
  1443  060E                     	;# 
  1444  060F                     	;# 
  1445  0610                     	;# 
  1446  0611                     	;# 
  1447  0612                     	;# 
  1448  0613                     	;# 
  1449  0614                     	;# 
  1450  0616                     	;# 
  1451  0617                     	;# 
  1452  0618                     	;# 
  1453  0619                     	;# 
  1454  061A                     	;# 
  1455  061B                     	;# 
  1456  061C                     	;# 
  1457  061D                     	;# 
  1458  061E                     	;# 
  1459  068C                     	;# 
  1460  068D                     	;# 
  1461  068E                     	;# 
  1462  068F                     	;# 
  1463  0690                     	;# 
  1464  0691                     	;# 
  1465  0692                     	;# 
  1466  0693                     	;# 
  1467  0694                     	;# 
  1468  070C                     	;# 
  1469  070D                     	;# 
  1470  070E                     	;# 
  1471  070F                     	;# 
  1472  0710                     	;# 
  1473  0711                     	;# 
  1474  0712                     	;# 
  1475  0713                     	;# 
  1476  0714                     	;# 
  1477  0716                     	;# 
  1478  0717                     	;# 
  1479  0718                     	;# 
  1480  0719                     	;# 
  1481  071A                     	;# 
  1482  071B                     	;# 
  1483  071C                     	;# 
  1484  071D                     	;# 
  1485  071E                     	;# 
  1486  0796                     	;# 
  1487  0797                     	;# 
  1488  0798                     	;# 
  1489  0799                     	;# 
  1490  079A                     	;# 
  1491  079B                     	;# 
  1492  080C                     	;# 
  1493  080D                     	;# 
  1494  080E                     	;# 
  1495  080F                     	;# 
  1496  0810                     	;# 
  1497  0811                     	;# 
  1498  0812                     	;# 
  1499  0813                     	;# 
  1500  0814                     	;# 
  1501  081A                     	;# 
  1502  081B                     	;# 
  1503  081C                     	;# 
  1504  081D                     	;# 
  1505  081E                     	;# 
  1506  081F                     	;# 
  1507  088C                     	;# 
  1508  088D                     	;# 
  1509  088E                     	;# 
  1510  088F                     	;# 
  1511  0890                     	;# 
  1512  0891                     	;# 
  1513  0892                     	;# 
  1514  0893                     	;# 
  1515  0895                     	;# 
  1516  0896                     	;# 
  1517  0897                     	;# 
  1518  0898                     	;# 
  1519  0899                     	;# 
  1520  089A                     	;# 
  1521  089B                     	;# 
  1522  090C                     	;# 
  1523  090E                     	;# 
  1524  090F                     	;# 
  1525  091F                     	;# 
  1526  098F                     	;# 
  1527  098F                     	;# 
  1528  0990                     	;# 
  1529  0991                     	;# 
  1530  0992                     	;# 
  1531  0993                     	;# 
  1532  0994                     	;# 
  1533  0995                     	;# 
  1534  0996                     	;# 
  1535  0997                     	;# 
  1536  1E0F                     	;# 
  1537  1E10                     	;# 
  1538  1E11                     	;# 
  1539  1E12                     	;# 
  1540  1E13                     	;# 
  1541  1E14                     	;# 
  1542  1E15                     	;# 
  1543  1E16                     	;# 
  1544  1E17                     	;# 
  1545  1E18                     	;# 
  1546  1E19                     	;# 
  1547  1E1A                     	;# 
  1548  1E1B                     	;# 
  1549  1E1C                     	;# 
  1550  1E1D                     	;# 
  1551  1E1E                     	;# 
  1552  1E1F                     	;# 
  1553  1E20                     	;# 
  1554  1E21                     	;# 
  1555  1E22                     	;# 
  1556  1E23                     	;# 
  1557  1E24                     	;# 
  1558  1E25                     	;# 
  1559  1E26                     	;# 
  1560  1E27                     	;# 
  1561  1E28                     	;# 
  1562  1E29                     	;# 
  1563  1E2A                     	;# 
  1564  1E2B                     	;# 
  1565  1E2C                     	;# 
  1566  1E2D                     	;# 
  1567  1E2E                     	;# 
  1568  1E2F                     	;# 
  1569  1E30                     	;# 
  1570  1E31                     	;# 
  1571  1E32                     	;# 
  1572  1E33                     	;# 
  1573  1E34                     	;# 
  1574  1E35                     	;# 
  1575  1E36                     	;# 
  1576  1E37                     	;# 
  1577  1E8F                     	;# 
  1578  1E90                     	;# 
  1579  1E91                     	;# 
  1580  1E92                     	;# 
  1581  1E93                     	;# 
  1582  1E94                     	;# 
  1583  1E95                     	;# 
  1584  1E96                     	;# 
  1585  1E97                     	;# 
  1586  1E9C                     	;# 
  1587  1E9D                     	;# 
  1588  1E9E                     	;# 
  1589  1EA1                     	;# 
  1590  1EA2                     	;# 
  1591  1EA3                     	;# 
  1592  1EA4                     	;# 
  1593  1EA5                     	;# 
  1594  1EA9                     	;# 
  1595  1EAA                     	;# 
  1596  1EAB                     	;# 
  1597  1EAC                     	;# 
  1598  1EB1                     	;# 
  1599  1EB2                     	;# 
  1600  1EB3                     	;# 
  1601  1EB8                     	;# 
  1602  1EB9                     	;# 
  1603  1EBA                     	;# 
  1604  1EBB                     	;# 
  1605  1EBC                     	;# 
  1606  1EBD                     	;# 
  1607  1EBE                     	;# 
  1608  1EC3                     	;# 
  1609  1EC5                     	;# 
  1610  1EC6                     	;# 
  1611  1EC7                     	;# 
  1612  1EC8                     	;# 
  1613  1EC9                     	;# 
  1614  1ECA                     	;# 
  1615  1ECB                     	;# 
  1616  1ECC                     	;# 
  1617  1F10                     	;# 
  1618  1F11                     	;# 
  1619  1F12                     	;# 
  1620  1F13                     	;# 
  1621  1F14                     	;# 
  1622  1F15                     	;# 
  1623  1F16                     	;# 
  1624  1F17                     	;# 
  1625  1F18                     	;# 
  1626  1F19                     	;# 
  1627  1F1A                     	;# 
  1628  1F1B                     	;# 
  1629  1F1C                     	;# 
  1630  1F1D                     	;# 
  1631  1F1E                     	;# 
  1632  1F1F                     	;# 
  1633  1F20                     	;# 
  1634  1F21                     	;# 
  1635  1F22                     	;# 
  1636  1F23                     	;# 
  1637  1F24                     	;# 
  1638  1F25                     	;# 
  1639  1F26                     	;# 
  1640  1F27                     	;# 
  1641  1F28                     	;# 
  1642  1F29                     	;# 
  1643  1F2A                     	;# 
  1644  1F2B                     	;# 
  1645  1F2C                     	;# 
  1646  1F2D                     	;# 
  1647  1F2E                     	;# 
  1648  1F2F                     	;# 
  1649  1F30                     	;# 
  1650  1F31                     	;# 
  1651  1F32                     	;# 
  1652  1F38                     	;# 
  1653  1F39                     	;# 
  1654  1F3A                     	;# 
  1655  1F3B                     	;# 
  1656  1F3C                     	;# 
  1657  1F3D                     	;# 
  1658  1F3E                     	;# 
  1659  1F3F                     	;# 
  1660  1F40                     	;# 
  1661  1F41                     	;# 
  1662  1F43                     	;# 
  1663  1F44                     	;# 
  1664  1F45                     	;# 
  1665  1F46                     	;# 
  1666  1F47                     	;# 
  1667  1F48                     	;# 
  1668  1F49                     	;# 
  1669  1F4A                     	;# 
  1670  1F4B                     	;# 
  1671  1F4C                     	;# 
  1672  1F4E                     	;# 
  1673  1F4F                     	;# 
  1674  1F50                     	;# 
  1675  1F51                     	;# 
  1676  1F52                     	;# 
  1677  1F53                     	;# 
  1678  1F54                     	;# 
  1679  1F55                     	;# 
  1680  1F56                     	;# 
  1681  1F57                     	;# 
  1682  1F59                     	;# 
  1683  1F5A                     	;# 
  1684  1F5B                     	;# 
  1685  1F5C                     	;# 
  1686  1F5D                     	;# 
  1687  1F61                     	;# 
  1688  1F62                     	;# 
  1689  1F64                     	;# 
  1690  1F65                     	;# 
  1691  1F66                     	;# 
  1692  1F67                     	;# 
  1693  1F68                     	;# 
  1694  1F69                     	;# 
  1695  1F6A                     	;# 
  1696  1F6B                     	;# 
  1697  1F6C                     	;# 
  1698  1F6D                     	;# 
  1699  1FE4                     	;# 
  1700  1FE5                     	;# 
  1701  1FE6                     	;# 
  1702  1FE7                     	;# 
  1703  1FE8                     	;# 
  1704  1FE9                     	;# 
  1705  1FEA                     	;# 
  1706  1FEB                     	;# 
  1707  1FED                     	;# 
  1708  1FEE                     	;# 
  1709  1FEF                     	;# 
  1710  0000                     	;# 
  1711  0001                     	;# 
  1712  0002                     	;# 
  1713  0003                     	;# 
  1714  0004                     	;# 
  1715  0005                     	;# 
  1716  0006                     	;# 
  1717  0007                     	;# 
  1718  0008                     	;# 
  1719  0009                     	;# 
  1720  000A                     	;# 
  1721  000B                     	;# 
  1722  000C                     	;# 
  1723  000D                     	;# 
  1724  000E                     	;# 
  1725  000F                     	;# 
  1726  0010                     	;# 
  1727  0011                     	;# 
  1728  0012                     	;# 
  1729  0013                     	;# 
  1730  0014                     	;# 
  1731  0015                     	;# 
  1732  0016                     	;# 
  1733  0017                     	;# 
  1734  0018                     	;# 
  1735  0019                     	;# 
  1736  001A                     	;# 
  1737  001C                     	;# 
  1738  001C                     	;# 
  1739  001D                     	;# 
  1740  001D                     	;# 
  1741  001E                     	;# 
  1742  001F                     	;# 
  1743  008C                     	;# 
  1744  008C                     	;# 
  1745  008D                     	;# 
  1746  008E                     	;# 
  1747  008E                     	;# 
  1748  008F                     	;# 
  1749  0090                     	;# 
  1750  0090                     	;# 
  1751  0091                     	;# 
  1752  0093                     	;# 
  1753  0094                     	;# 
  1754  0095                     	;# 
  1755  0096                     	;# 
  1756  0097                     	;# 
  1757  0098                     	;# 
  1758  0099                     	;# 
  1759  009A                     	;# 
  1760  009B                     	;# 
  1761  009C                     	;# 
  1762  009D                     	;# 
  1763  009E                     	;# 
  1764  010C                     	;# 
  1765  010D                     	;# 
  1766  010E                     	;# 
  1767  010E                     	;# 
  1768  010F                     	;# 
  1769  0110                     	;# 
  1770  0110                     	;# 
  1771  0111                     	;# 
  1772  0112                     	;# 
  1773  0112                     	;# 
  1774  0113                     	;# 
  1775  0114                     	;# 
  1776  0114                     	;# 
  1777  0115                     	;# 
  1778  0116                     	;# 
  1779  0116                     	;# 
  1780  0117                     	;# 
  1781  0119                     	;# 
  1782  0119                     	;# 
  1783  0119                     	;# 
  1784  011A                     	;# 
  1785  011A                     	;# 
  1786  011A                     	;# 
  1787  011B                     	;# 
  1788  011B                     	;# 
  1789  011B                     	;# 
  1790  011B                     	;# 
  1791  011B                     	;# 
  1792  011C                     	;# 
  1793  011C                     	;# 
  1794  011C                     	;# 
  1795  011D                     	;# 
  1796  011D                     	;# 
  1797  011D                     	;# 
  1798  011E                     	;# 
  1799  011E                     	;# 
  1800  011E                     	;# 
  1801  011F                     	;# 
  1802  011F                     	;# 
  1803  011F                     	;# 
  1804  011F                     	;# 
  1805  011F                     	;# 
  1806  018C                     	;# 
  1807  018D                     	;# 
  1808  018E                     	;# 
  1809  018F                     	;# 
  1810  0190                     	;# 
  1811  0191                     	;# 
  1812  0192                     	;# 
  1813  0196                     	;# 
  1814  0197                     	;# 
  1815  0198                     	;# 
  1816  0199                     	;# 
  1817  019A                     	;# 
  1818  019B                     	;# 
  1819  019C                     	;# 
  1820  020C                     	;# 
  1821  020C                     	;# 
  1822  020D                     	;# 
  1823  020E                     	;# 
  1824  020F                     	;# 
  1825  020F                     	;# 
  1826  0210                     	;# 
  1827  0210                     	;# 
  1828  0211                     	;# 
  1829  0211                     	;# 
  1830  0212                     	;# 
  1831  0212                     	;# 
  1832  0213                     	;# 
  1833  0214                     	;# 
  1834  0215                     	;# 
  1835  0215                     	;# 
  1836  0216                     	;# 
  1837  0216                     	;# 
  1838  0217                     	;# 
  1839  0217                     	;# 
  1840  0218                     	;# 
  1841  0218                     	;# 
  1842  0219                     	;# 
  1843  021A                     	;# 
  1844  021B                     	;# 
  1845  021B                     	;# 
  1846  021C                     	;# 
  1847  021C                     	;# 
  1848  021D                     	;# 
  1849  021D                     	;# 
  1850  021E                     	;# 
  1851  021F                     	;# 
  1852  028C                     	;# 
  1853  028C                     	;# 
  1854  028D                     	;# 
  1855  028D                     	;# 
  1856  028E                     	;# 
  1857  028F                     	;# 
  1858  0290                     	;# 
  1859  0290                     	;# 
  1860  0291                     	;# 
  1861  0292                     	;# 
  1862  0292                     	;# 
  1863  0293                     	;# 
  1864  0293                     	;# 
  1865  0294                     	;# 
  1866  0295                     	;# 
  1867  0296                     	;# 
  1868  0296                     	;# 
  1869  0297                     	;# 
  1870  0298                     	;# 
  1871  0298                     	;# 
  1872  0299                     	;# 
  1873  0299                     	;# 
  1874  029A                     	;# 
  1875  029B                     	;# 
  1876  029C                     	;# 
  1877  029C                     	;# 
  1878  029D                     	;# 
  1879  030C                     	;# 
  1880  030C                     	;# 
  1881  030D                     	;# 
  1882  030E                     	;# 
  1883  030F                     	;# 
  1884  0310                     	;# 
  1885  0310                     	;# 
  1886  0311                     	;# 
  1887  0312                     	;# 
  1888  0313                     	;# 
  1889  0314                     	;# 
  1890  0314                     	;# 
  1891  0315                     	;# 
  1892  0316                     	;# 
  1893  0317                     	;# 
  1894  0318                     	;# 
  1895  0318                     	;# 
  1896  0319                     	;# 
  1897  031A                     	;# 
  1898  031B                     	;# 
  1899  031C                     	;# 
  1900  031C                     	;# 
  1901  031D                     	;# 
  1902  031E                     	;# 
  1903  031F                     	;# 
  1904  038C                     	;# 
  1905  038C                     	;# 
  1906  038D                     	;# 
  1907  038E                     	;# 
  1908  0390                     	;# 
  1909  0390                     	;# 
  1910  0391                     	;# 
  1911  0392                     	;# 
  1912  040C                     	;# 
  1913  040D                     	;# 
  1914  040E                     	;# 
  1915  040F                     	;# 
  1916  0410                     	;# 
  1917  0411                     	;# 
  1918  0416                     	;# 
  1919  0416                     	;# 
  1920  0417                     	;# 
  1921  0418                     	;# 
  1922  0418                     	;# 
  1923  0419                     	;# 
  1924  041A                     	;# 
  1925  041A                     	;# 
  1926  041B                     	;# 
  1927  041C                     	;# 
  1928  041C                     	;# 
  1929  041D                     	;# 
  1930  041E                     	;# 
  1931  041F                     	;# 
  1932  048C                     	;# 
  1933  048C                     	;# 
  1934  048D                     	;# 
  1935  048E                     	;# 
  1936  048F                     	;# 
  1937  048F                     	;# 
  1938  0490                     	;# 
  1939  0491                     	;# 
  1940  0492                     	;# 
  1941  0492                     	;# 
  1942  0493                     	;# 
  1943  0494                     	;# 
  1944  0495                     	;# 
  1945  0495                     	;# 
  1946  0496                     	;# 
  1947  0497                     	;# 
  1948  0498                     	;# 
  1949  0499                     	;# 
  1950  049A                     	;# 
  1951  049B                     	;# 
  1952  049C                     	;# 
  1953  049D                     	;# 
  1954  050C                     	;# 
  1955  050C                     	;# 
  1956  050D                     	;# 
  1957  050E                     	;# 
  1958  050F                     	;# 
  1959  050F                     	;# 
  1960  0510                     	;# 
  1961  0511                     	;# 
  1962  0512                     	;# 
  1963  0512                     	;# 
  1964  0513                     	;# 
  1965  0514                     	;# 
  1966  0515                     	;# 
  1967  0515                     	;# 
  1968  0516                     	;# 
  1969  0517                     	;# 
  1970  0518                     	;# 
  1971  0519                     	;# 
  1972  051A                     	;# 
  1973  051B                     	;# 
  1974  051C                     	;# 
  1975  051D                     	;# 
  1976  058C                     	;# 
  1977  058C                     	;# 
  1978  058D                     	;# 
  1979  058E                     	;# 
  1980  058F                     	;# 
  1981  058F                     	;# 
  1982  0590                     	;# 
  1983  0591                     	;# 
  1984  0592                     	;# 
  1985  0593                     	;# 
  1986  060C                     	;# 
  1987  060D                     	;# 
  1988  060E                     	;# 
  1989  060F                     	;# 
  1990  0610                     	;# 
  1991  0611                     	;# 
  1992  0612                     	;# 
  1993  0613                     	;# 
  1994  0614                     	;# 
  1995  0616                     	;# 
  1996  0617                     	;# 
  1997  0618                     	;# 
  1998  0619                     	;# 
  1999  061A                     	;# 
  2000  061B                     	;# 
  2001  061C                     	;# 
  2002  061D                     	;# 
  2003  061E                     	;# 
  2004  068C                     	;# 
  2005  068D                     	;# 
  2006  068E                     	;# 
  2007  068F                     	;# 
  2008  0690                     	;# 
  2009  0691                     	;# 
  2010  0692                     	;# 
  2011  0693                     	;# 
  2012  0694                     	;# 
  2013  070C                     	;# 
  2014  070D                     	;# 
  2015  070E                     	;# 
  2016  070F                     	;# 
  2017  0710                     	;# 
  2018  0711                     	;# 
  2019  0712                     	;# 
  2020  0713                     	;# 
  2021  0714                     	;# 
  2022  0716                     	;# 
  2023  0717                     	;# 
  2024  0718                     	;# 
  2025  0719                     	;# 
  2026  071A                     	;# 
  2027  071B                     	;# 
  2028  071C                     	;# 
  2029  071D                     	;# 
  2030  071E                     	;# 
  2031  0796                     	;# 
  2032  0797                     	;# 
  2033  0798                     	;# 
  2034  0799                     	;# 
  2035  079A                     	;# 
  2036  079B                     	;# 
  2037  080C                     	;# 
  2038  080D                     	;# 
  2039  080E                     	;# 
  2040  080F                     	;# 
  2041  0810                     	;# 
  2042  0811                     	;# 
  2043  0812                     	;# 
  2044  0813                     	;# 
  2045  0814                     	;# 
  2046  081A                     	;# 
  2047  081B                     	;# 
  2048  081C                     	;# 
  2049  081D                     	;# 
  2050  081E                     	;# 
  2051  081F                     	;# 
  2052  088C                     	;# 
  2053  088D                     	;# 
  2054  088E                     	;# 
  2055  088F                     	;# 
  2056  0890                     	;# 
  2057  0891                     	;# 
  2058  0892                     	;# 
  2059  0893                     	;# 
  2060  0895                     	;# 
  2061  0896                     	;# 
  2062  0897                     	;# 
  2063  0898                     	;# 
  2064  0899                     	;# 
  2065  089A                     	;# 
  2066  089B                     	;# 
  2067  090C                     	;# 
  2068  090E                     	;# 
  2069  090F                     	;# 
  2070  091F                     	;# 
  2071  098F                     	;# 
  2072  098F                     	;# 
  2073  0990                     	;# 
  2074  0991                     	;# 
  2075  0992                     	;# 
  2076  0993                     	;# 
  2077  0994                     	;# 
  2078  0995                     	;# 
  2079  0996                     	;# 
  2080  0997                     	;# 
  2081  1E0F                     	;# 
  2082  1E10                     	;# 
  2083  1E11                     	;# 
  2084  1E12                     	;# 
  2085  1E13                     	;# 
  2086  1E14                     	;# 
  2087  1E15                     	;# 
  2088  1E16                     	;# 
  2089  1E17                     	;# 
  2090  1E18                     	;# 
  2091  1E19                     	;# 
  2092  1E1A                     	;# 
  2093  1E1B                     	;# 
  2094  1E1C                     	;# 
  2095  1E1D                     	;# 
  2096  1E1E                     	;# 
  2097  1E1F                     	;# 
  2098  1E20                     	;# 
  2099  1E21                     	;# 
  2100  1E22                     	;# 
  2101  1E23                     	;# 
  2102  1E24                     	;# 
  2103  1E25                     	;# 
  2104  1E26                     	;# 
  2105  1E27                     	;# 
  2106  1E28                     	;# 
  2107  1E29                     	;# 
  2108  1E2A                     	;# 
  2109  1E2B                     	;# 
  2110  1E2C                     	;# 
  2111  1E2D                     	;# 
  2112  1E2E                     	;# 
  2113  1E2F                     	;# 
  2114  1E30                     	;# 
  2115  1E31                     	;# 
  2116  1E32                     	;# 
  2117  1E33                     	;# 
  2118  1E34                     	;# 
  2119  1E35                     	;# 
  2120  1E36                     	;# 
  2121  1E37                     	;# 
  2122  1E8F                     	;# 
  2123  1E90                     	;# 
  2124  1E91                     	;# 
  2125  1E92                     	;# 
  2126  1E93                     	;# 
  2127  1E94                     	;# 
  2128  1E95                     	;# 
  2129  1E96                     	;# 
  2130  1E97                     	;# 
  2131  1E9C                     	;# 
  2132  1E9D                     	;# 
  2133  1E9E                     	;# 
  2134  1EA1                     	;# 
  2135  1EA2                     	;# 
  2136  1EA3                     	;# 
  2137  1EA4                     	;# 
  2138  1EA5                     	;# 
  2139  1EA9                     	;# 
  2140  1EAA                     	;# 
  2141  1EAB                     	;# 
  2142  1EAC                     	;# 
  2143  1EB1                     	;# 
  2144  1EB2                     	;# 
  2145  1EB3                     	;# 
  2146  1EB8                     	;# 
  2147  1EB9                     	;# 
  2148  1EBA                     	;# 
  2149  1EBB                     	;# 
  2150  1EBC                     	;# 
  2151  1EBD                     	;# 
  2152  1EBE                     	;# 
  2153  1EC3                     	;# 
  2154  1EC5                     	;# 
  2155  1EC6                     	;# 
  2156  1EC7                     	;# 
  2157  1EC8                     	;# 
  2158  1EC9                     	;# 
  2159  1ECA                     	;# 
  2160  1ECB                     	;# 
  2161  1ECC                     	;# 
  2162  1F10                     	;# 
  2163  1F11                     	;# 
  2164  1F12                     	;# 
  2165  1F13                     	;# 
  2166  1F14                     	;# 
  2167  1F15                     	;# 
  2168  1F16                     	;# 
  2169  1F17                     	;# 
  2170  1F18                     	;# 
  2171  1F19                     	;# 
  2172  1F1A                     	;# 
  2173  1F1B                     	;# 
  2174  1F1C                     	;# 
  2175  1F1D                     	;# 
  2176  1F1E                     	;# 
  2177  1F1F                     	;# 
  2178  1F20                     	;# 
  2179  1F21                     	;# 
  2180  1F22                     	;# 
  2181  1F23                     	;# 
  2182  1F24                     	;# 
  2183  1F25                     	;# 
  2184  1F26                     	;# 
  2185  1F27                     	;# 
  2186  1F28                     	;# 
  2187  1F29                     	;# 
  2188  1F2A                     	;# 
  2189  1F2B                     	;# 
  2190  1F2C                     	;# 
  2191  1F2D                     	;# 
  2192  1F2E                     	;# 
  2193  1F2F                     	;# 
  2194  1F30                     	;# 
  2195  1F31                     	;# 
  2196  1F32                     	;# 
  2197  1F38                     	;# 
  2198  1F39                     	;# 
  2199  1F3A                     	;# 
  2200  1F3B                     	;# 
  2201  1F3C                     	;# 
  2202  1F3D                     	;# 
  2203  1F3E                     	;# 
  2204  1F3F                     	;# 
  2205  1F40                     	;# 
  2206  1F41                     	;# 
  2207  1F43                     	;# 
  2208  1F44                     	;# 
  2209  1F45                     	;# 
  2210  1F46                     	;# 
  2211  1F47                     	;# 
  2212  1F48                     	;# 
  2213  1F49                     	;# 
  2214  1F4A                     	;# 
  2215  1F4B                     	;# 
  2216  1F4C                     	;# 
  2217  1F4E                     	;# 
  2218  1F4F                     	;# 
  2219  1F50                     	;# 
  2220  1F51                     	;# 
  2221  1F52                     	;# 
  2222  1F53                     	;# 
  2223  1F54                     	;# 
  2224  1F55                     	;# 
  2225  1F56                     	;# 
  2226  1F57                     	;# 
  2227  1F59                     	;# 
  2228  1F5A                     	;# 
  2229  1F5B                     	;# 
  2230  1F5C                     	;# 
  2231  1F5D                     	;# 
  2232  1F61                     	;# 
  2233  1F62                     	;# 
  2234  1F64                     	;# 
  2235  1F65                     	;# 
  2236  1F66                     	;# 
  2237  1F67                     	;# 
  2238  1F68                     	;# 
  2239  1F69                     	;# 
  2240  1F6A                     	;# 
  2241  1F6B                     	;# 
  2242  1F6C                     	;# 
  2243  1F6D                     	;# 
  2244  1FE4                     	;# 
  2245  1FE5                     	;# 
  2246  1FE6                     	;# 
  2247  1FE7                     	;# 
  2248  1FE8                     	;# 
  2249  1FE9                     	;# 
  2250  1FEA                     	;# 
  2251  1FEB                     	;# 
  2252  1FED                     	;# 
  2253  1FEE                     	;# 
  2254  1FEF                     	;# 
  2255  0000                     	;# 
  2256  0001                     	;# 
  2257  0002                     	;# 
  2258  0003                     	;# 
  2259  0004                     	;# 
  2260  0005                     	;# 
  2261  0006                     	;# 
  2262  0007                     	;# 
  2263  0008                     	;# 
  2264  0009                     	;# 
  2265  000A                     	;# 
  2266  000B                     	;# 
  2267  000C                     	;# 
  2268  000D                     	;# 
  2269  000E                     	;# 
  2270  000F                     	;# 
  2271  0010                     	;# 
  2272  0011                     	;# 
  2273  0012                     	;# 
  2274  0013                     	;# 
  2275  0014                     	;# 
  2276  0015                     	;# 
  2277  0016                     	;# 
  2278  0017                     	;# 
  2279  0018                     	;# 
  2280  0019                     	;# 
  2281  001A                     	;# 
  2282  001C                     	;# 
  2283  001C                     	;# 
  2284  001D                     	;# 
  2285  001D                     	;# 
  2286  001E                     	;# 
  2287  001F                     	;# 
  2288  008C                     	;# 
  2289  008C                     	;# 
  2290  008D                     	;# 
  2291  008E                     	;# 
  2292  008E                     	;# 
  2293  008F                     	;# 
  2294  0090                     	;# 
  2295  0090                     	;# 
  2296  0091                     	;# 
  2297  0093                     	;# 
  2298  0094                     	;# 
  2299  0095                     	;# 
  2300  0096                     	;# 
  2301  0097                     	;# 
  2302  0098                     	;# 
  2303  0099                     	;# 
  2304  009A                     	;# 
  2305  009B                     	;# 
  2306  009C                     	;# 
  2307  009D                     	;# 
  2308  009E                     	;# 
  2309  010C                     	;# 
  2310  010D                     	;# 
  2311  010E                     	;# 
  2312  010E                     	;# 
  2313  010F                     	;# 
  2314  0110                     	;# 
  2315  0110                     	;# 
  2316  0111                     	;# 
  2317  0112                     	;# 
  2318  0112                     	;# 
  2319  0113                     	;# 
  2320  0114                     	;# 
  2321  0114                     	;# 
  2322  0115                     	;# 
  2323  0116                     	;# 
  2324  0116                     	;# 
  2325  0117                     	;# 
  2326  0119                     	;# 
  2327  0119                     	;# 
  2328  0119                     	;# 
  2329  011A                     	;# 
  2330  011A                     	;# 
  2331  011A                     	;# 
  2332  011B                     	;# 
  2333  011B                     	;# 
  2334  011B                     	;# 
  2335  011B                     	;# 
  2336  011B                     	;# 
  2337  011C                     	;# 
  2338  011C                     	;# 
  2339  011C                     	;# 
  2340  011D                     	;# 
  2341  011D                     	;# 
  2342  011D                     	;# 
  2343  011E                     	;# 
  2344  011E                     	;# 
  2345  011E                     	;# 
  2346  011F                     	;# 
  2347  011F                     	;# 
  2348  011F                     	;# 
  2349  011F                     	;# 
  2350  011F                     	;# 
  2351  018C                     	;# 
  2352  018D                     	;# 
  2353  018E                     	;# 
  2354  018F                     	;# 
  2355  0190                     	;# 
  2356  0191                     	;# 
  2357  0192                     	;# 
  2358  0196                     	;# 
  2359  0197                     	;# 
  2360  0198                     	;# 
  2361  0199                     	;# 
  2362  019A                     	;# 
  2363  019B                     	;# 
  2364  019C                     	;# 
  2365  020C                     	;# 
  2366  020C                     	;# 
  2367  020D                     	;# 
  2368  020E                     	;# 
  2369  020F                     	;# 
  2370  020F                     	;# 
  2371  0210                     	;# 
  2372  0210                     	;# 
  2373  0211                     	;# 
  2374  0211                     	;# 
  2375  0212                     	;# 
  2376  0212                     	;# 
  2377  0213                     	;# 
  2378  0214                     	;# 
  2379  0215                     	;# 
  2380  0215                     	;# 
  2381  0216                     	;# 
  2382  0216                     	;# 
  2383  0217                     	;# 
  2384  0217                     	;# 
  2385  0218                     	;# 
  2386  0218                     	;# 
  2387  0219                     	;# 
  2388  021A                     	;# 
  2389  021B                     	;# 
  2390  021B                     	;# 
  2391  021C                     	;# 
  2392  021C                     	;# 
  2393  021D                     	;# 
  2394  021D                     	;# 
  2395  021E                     	;# 
  2396  021F                     	;# 
  2397  028C                     	;# 
  2398  028C                     	;# 
  2399  028D                     	;# 
  2400  028D                     	;# 
  2401  028E                     	;# 
  2402  028F                     	;# 
  2403  0290                     	;# 
  2404  0290                     	;# 
  2405  0291                     	;# 
  2406  0292                     	;# 
  2407  0292                     	;# 
  2408  0293                     	;# 
  2409  0293                     	;# 
  2410  0294                     	;# 
  2411  0295                     	;# 
  2412  0296                     	;# 
  2413  0296                     	;# 
  2414  0297                     	;# 
  2415  0298                     	;# 
  2416  0298                     	;# 
  2417  0299                     	;# 
  2418  0299                     	;# 
  2419  029A                     	;# 
  2420  029B                     	;# 
  2421  029C                     	;# 
  2422  029C                     	;# 
  2423  029D                     	;# 
  2424  030C                     	;# 
  2425  030C                     	;# 
  2426  030D                     	;# 
  2427  030E                     	;# 
  2428  030F                     	;# 
  2429  0310                     	;# 
  2430  0310                     	;# 
  2431  0311                     	;# 
  2432  0312                     	;# 
  2433  0313                     	;# 
  2434  0314                     	;# 
  2435  0314                     	;# 
  2436  0315                     	;# 
  2437  0316                     	;# 
  2438  0317                     	;# 
  2439  0318                     	;# 
  2440  0318                     	;# 
  2441  0319                     	;# 
  2442  031A                     	;# 
  2443  031B                     	;# 
  2444  031C                     	;# 
  2445  031C                     	;# 
  2446  031D                     	;# 
  2447  031E                     	;# 
  2448  031F                     	;# 
  2449  038C                     	;# 
  2450  038C                     	;# 
  2451  038D                     	;# 
  2452  038E                     	;# 
  2453  0390                     	;# 
  2454  0390                     	;# 
  2455  0391                     	;# 
  2456  0392                     	;# 
  2457  040C                     	;# 
  2458  040D                     	;# 
  2459  040E                     	;# 
  2460  040F                     	;# 
  2461  0410                     	;# 
  2462  0411                     	;# 
  2463  0416                     	;# 
  2464  0416                     	;# 
  2465  0417                     	;# 
  2466  0418                     	;# 
  2467  0418                     	;# 
  2468  0419                     	;# 
  2469  041A                     	;# 
  2470  041A                     	;# 
  2471  041B                     	;# 
  2472  041C                     	;# 
  2473  041C                     	;# 
  2474  041D                     	;# 
  2475  041E                     	;# 
  2476  041F                     	;# 
  2477  048C                     	;# 
  2478  048C                     	;# 
  2479  048D                     	;# 
  2480  048E                     	;# 
  2481  048F                     	;# 
  2482  048F                     	;# 
  2483  0490                     	;# 
  2484  0491                     	;# 
  2485  0492                     	;# 
  2486  0492                     	;# 
  2487  0493                     	;# 
  2488  0494                     	;# 
  2489  0495                     	;# 
  2490  0495                     	;# 
  2491  0496                     	;# 
  2492  0497                     	;# 
  2493  0498                     	;# 
  2494  0499                     	;# 
  2495  049A                     	;# 
  2496  049B                     	;# 
  2497  049C                     	;# 
  2498  049D                     	;# 
  2499  050C                     	;# 
  2500  050C                     	;# 
  2501  050D                     	;# 
  2502  050E                     	;# 
  2503  050F                     	;# 
  2504  050F                     	;# 
  2505  0510                     	;# 
  2506  0511                     	;# 
  2507  0512                     	;# 
  2508  0512                     	;# 
  2509  0513                     	;# 
  2510  0514                     	;# 
  2511  0515                     	;# 
  2512  0515                     	;# 
  2513  0516                     	;# 
  2514  0517                     	;# 
  2515  0518                     	;# 
  2516  0519                     	;# 
  2517  051A                     	;# 
  2518  051B                     	;# 
  2519  051C                     	;# 
  2520  051D                     	;# 
  2521  058C                     	;# 
  2522  058C                     	;# 
  2523  058D                     	;# 
  2524  058E                     	;# 
  2525  058F                     	;# 
  2526  058F                     	;# 
  2527  0590                     	;# 
  2528  0591                     	;# 
  2529  0592                     	;# 
  2530  0593                     	;# 
  2531  060C                     	;# 
  2532  060D                     	;# 
  2533  060E                     	;# 
  2534  060F                     	;# 
  2535  0610                     	;# 
  2536  0611                     	;# 
  2537  0612                     	;# 
  2538  0613                     	;# 
  2539  0614                     	;# 
  2540  0616                     	;# 
  2541  0617                     	;# 
  2542  0618                     	;# 
  2543  0619                     	;# 
  2544  061A                     	;# 
  2545  061B                     	;# 
  2546  061C                     	;# 
  2547  061D                     	;# 
  2548  061E                     	;# 
  2549  068C                     	;# 
  2550  068D                     	;# 
  2551  068E                     	;# 
  2552  068F                     	;# 
  2553  0690                     	;# 
  2554  0691                     	;# 
  2555  0692                     	;# 
  2556  0693                     	;# 
  2557  0694                     	;# 
  2558  070C                     	;# 
  2559  070D                     	;# 
  2560  070E                     	;# 
  2561  070F                     	;# 
  2562  0710                     	;# 
  2563  0711                     	;# 
  2564  0712                     	;# 
  2565  0713                     	;# 
  2566  0714                     	;# 
  2567  0716                     	;# 
  2568  0717                     	;# 
  2569  0718                     	;# 
  2570  0719                     	;# 
  2571  071A                     	;# 
  2572  071B                     	;# 
  2573  071C                     	;# 
  2574  071D                     	;# 
  2575  071E                     	;# 
  2576  0796                     	;# 
  2577  0797                     	;# 
  2578  0798                     	;# 
  2579  0799                     	;# 
  2580  079A                     	;# 
  2581  079B                     	;# 
  2582  080C                     	;# 
  2583  080D                     	;# 
  2584  080E                     	;# 
  2585  080F                     	;# 
  2586  0810                     	;# 
  2587  0811                     	;# 
  2588  0812                     	;# 
  2589  0813                     	;# 
  2590  0814                     	;# 
  2591  081A                     	;# 
  2592  081B                     	;# 
  2593  081C                     	;# 
  2594  081D                     	;# 
  2595  081E                     	;# 
  2596  081F                     	;# 
  2597  088C                     	;# 
  2598  088D                     	;# 
  2599  088E                     	;# 
  2600  088F                     	;# 
  2601  0890                     	;# 
  2602  0891                     	;# 
  2603  0892                     	;# 
  2604  0893                     	;# 
  2605  0895                     	;# 
  2606  0896                     	;# 
  2607  0897                     	;# 
  2608  0898                     	;# 
  2609  0899                     	;# 
  2610  089A                     	;# 
  2611  089B                     	;# 
  2612  090C                     	;# 
  2613  090E                     	;# 
  2614  090F                     	;# 
  2615  091F                     	;# 
  2616  098F                     	;# 
  2617  098F                     	;# 
  2618  0990                     	;# 
  2619  0991                     	;# 
  2620  0992                     	;# 
  2621  0993                     	;# 
  2622  0994                     	;# 
  2623  0995                     	;# 
  2624  0996                     	;# 
  2625  0997                     	;# 
  2626  1E0F                     	;# 
  2627  1E10                     	;# 
  2628  1E11                     	;# 
  2629  1E12                     	;# 
  2630  1E13                     	;# 
  2631  1E14                     	;# 
  2632  1E15                     	;# 
  2633  1E16                     	;# 
  2634  1E17                     	;# 
  2635  1E18                     	;# 
  2636  1E19                     	;# 
  2637  1E1A                     	;# 
  2638  1E1B                     	;# 
  2639  1E1C                     	;# 
  2640  1E1D                     	;# 
  2641  1E1E                     	;# 
  2642  1E1F                     	;# 
  2643  1E20                     	;# 
  2644  1E21                     	;# 
  2645  1E22                     	;# 
  2646  1E23                     	;# 
  2647  1E24                     	;# 
  2648  1E25                     	;# 
  2649  1E26                     	;# 
  2650  1E27                     	;# 
  2651  1E28                     	;# 
  2652  1E29                     	;# 
  2653  1E2A                     	;# 
  2654  1E2B                     	;# 
  2655  1E2C                     	;# 
  2656  1E2D                     	;# 
  2657  1E2E                     	;# 
  2658  1E2F                     	;# 
  2659  1E30                     	;# 
  2660  1E31                     	;# 
  2661  1E32                     	;# 
  2662  1E33                     	;# 
  2663  1E34                     	;# 
  2664  1E35                     	;# 
  2665  1E36                     	;# 
  2666  1E37                     	;# 
  2667  1E8F                     	;# 
  2668  1E90                     	;# 
  2669  1E91                     	;# 
  2670  1E92                     	;# 
  2671  1E93                     	;# 
  2672  1E94                     	;# 
  2673  1E95                     	;# 
  2674  1E96                     	;# 
  2675  1E97                     	;# 
  2676  1E9C                     	;# 
  2677  1E9D                     	;# 
  2678  1E9E                     	;# 
  2679  1EA1                     	;# 
  2680  1EA2                     	;# 
  2681  1EA3                     	;# 
  2682  1EA4                     	;# 
  2683  1EA5                     	;# 
  2684  1EA9                     	;# 
  2685  1EAA                     	;# 
  2686  1EAB                     	;# 
  2687  1EAC                     	;# 
  2688  1EB1                     	;# 
  2689  1EB2                     	;# 
  2690  1EB3                     	;# 
  2691  1EB8                     	;# 
  2692  1EB9                     	;# 
  2693  1EBA                     	;# 
  2694  1EBB                     	;# 
  2695  1EBC                     	;# 
  2696  1EBD                     	;# 
  2697  1EBE                     	;# 
  2698  1EC3                     	;# 
  2699  1EC5                     	;# 
  2700  1EC6                     	;# 
  2701  1EC7                     	;# 
  2702  1EC8                     	;# 
  2703  1EC9                     	;# 
  2704  1ECA                     	;# 
  2705  1ECB                     	;# 
  2706  1ECC                     	;# 
  2707  1F10                     	;# 
  2708  1F11                     	;# 
  2709  1F12                     	;# 
  2710  1F13                     	;# 
  2711  1F14                     	;# 
  2712  1F15                     	;# 
  2713  1F16                     	;# 
  2714  1F17                     	;# 
  2715  1F18                     	;# 
  2716  1F19                     	;# 
  2717  1F1A                     	;# 
  2718  1F1B                     	;# 
  2719  1F1C                     	;# 
  2720  1F1D                     	;# 
  2721  1F1E                     	;# 
  2722  1F1F                     	;# 
  2723  1F20                     	;# 
  2724  1F21                     	;# 
  2725  1F22                     	;# 
  2726  1F23                     	;# 
  2727  1F24                     	;# 
  2728  1F25                     	;# 
  2729  1F26                     	;# 
  2730  1F27                     	;# 
  2731  1F28                     	;# 
  2732  1F29                     	;# 
  2733  1F2A                     	;# 
  2734  1F2B                     	;# 
  2735  1F2C                     	;# 
  2736  1F2D                     	;# 
  2737  1F2E                     	;# 
  2738  1F2F                     	;# 
  2739  1F30                     	;# 
  2740  1F31                     	;# 
  2741  1F32                     	;# 
  2742  1F38                     	;# 
  2743  1F39                     	;# 
  2744  1F3A                     	;# 
  2745  1F3B                     	;# 
  2746  1F3C                     	;# 
  2747  1F3D                     	;# 
  2748  1F3E                     	;# 
  2749  1F3F                     	;# 
  2750  1F40                     	;# 
  2751  1F41                     	;# 
  2752  1F43                     	;# 
  2753  1F44                     	;# 
  2754  1F45                     	;# 
  2755  1F46                     	;# 
  2756  1F47                     	;# 
  2757  1F48                     	;# 
  2758  1F49                     	;# 
  2759  1F4A                     	;# 
  2760  1F4B                     	;# 
  2761  1F4C                     	;# 
  2762  1F4E                     	;# 
  2763  1F4F                     	;# 
  2764  1F50                     	;# 
  2765  1F51                     	;# 
  2766  1F52                     	;# 
  2767  1F53                     	;# 
  2768  1F54                     	;# 
  2769  1F55                     	;# 
  2770  1F56                     	;# 
  2771  1F57                     	;# 
  2772  1F59                     	;# 
  2773  1F5A                     	;# 
  2774  1F5B                     	;# 
  2775  1F5C                     	;# 
  2776  1F5D                     	;# 
  2777  1F61                     	;# 
  2778  1F62                     	;# 
  2779  1F64                     	;# 
  2780  1F65                     	;# 
  2781  1F66                     	;# 
  2782  1F67                     	;# 
  2783  1F68                     	;# 
  2784  1F69                     	;# 
  2785  1F6A                     	;# 
  2786  1F6B                     	;# 
  2787  1F6C                     	;# 
  2788  1F6D                     	;# 
  2789  1FE4                     	;# 
  2790  1FE5                     	;# 
  2791  1FE6                     	;# 
  2792  1FE7                     	;# 
  2793  1FE8                     	;# 
  2794  1FE9                     	;# 
  2795  1FEA                     	;# 
  2796  1FEB                     	;# 
  2797  1FED                     	;# 
  2798  1FEE                     	;# 
  2799  1FEF                     	;# 
  2800  000D                     _PORTBbits	set	13
  2801  000B                     _INTCONbits	set	11
  2802  0017                     _LATBbits	set	23
  2803  001A                     _LATEbits	set	26
  2804  0014                     _TRISD	set	20
  2805  0013                     _TRISC	set	19
  2806  0012                     _TRISB	set	18
  2807  0011                     _TRISA	set	17
  2808  0015                     _TRISE	set	21
  2809  0018                     _LATC	set	24
  2810  0017                     _LATB	set	23
  2811  0016                     _LATA	set	22
  2812  0019                     _LATD	set	25
  2813  001A                     _LATE	set	26
  2814  0094                     _ADCON1bits	set	148
  2815  008E                     _ADPREVL	set	142
  2816  008F                     _ADPREVH	set	143
  2817  0097                     _ADSTATbits	set	151
  2818  0090                     _ADACCL	set	144
  2819  0091                     _ADACCH	set	145
  2820  0095                     _ADCON2bits	set	149
  2821  0096                     _ADCON3bits	set	150
  2822  008C                     _ADRESL	set	140
  2823  008D                     _ADRESH	set	141
  2824  0093                     _ADCON0bits	set	147
  2825  009D                     _ADACQ	set	157
  2826  0093                     _ADCON0	set	147
  2827  0098                     _ADCLK	set	152
  2828  0099                     _ADACT	set	153
  2829  009A                     _ADREF	set	154
  2830  0097                     _ADSTAT	set	151
  2831  0096                     _ADCON3	set	150
  2832  0095                     _ADCON2	set	149
  2833  0094                     _ADCON1	set	148
  2834  009C                     _ADPRE	set	156
  2835  009B                     _ADCAP	set	155
  2836  009E                     _ADPCH	set	158
  2837  0116                     _ADERRL	set	278
  2838  0117                     _ADERRH	set	279
  2839  0114                     _ADFLTRL	set	276
  2840  0115                     _ADFLTRH	set	277
  2841  010C                     _ADCNT	set	268
  2842  010D                     _ADRPT	set	269
  2843  0113                     _ADSTPTH	set	275
  2844  0112                     _ADSTPTL	set	274
  2845  0111                     _ADUTHH	set	273
  2846  0110                     _ADUTHL	set	272
  2847  010F                     _ADLTHH	set	271
  2848  010E                     _ADLTHL	set	270
  2849  0716                     _PIE0bits	set	1814
  2850  070C                     _PIR0bits	set	1804
  2851  079B                     _PMD5	set	1947
  2852  079A                     _PMD4	set	1946
  2853  0799                     _PMD3	set	1945
  2854  0798                     _PMD2	set	1944
  2855  0797                     _PMD1	set	1943
  2856  0796                     _PMD0	set	1942
  2857  0892                     _OSCTUNE	set	2194
  2858  0893                     _OSCFRQ	set	2195
  2859  0891                     _OSCEN	set	2193
  2860  088F                     _OSCCON3	set	2191
  2861  088D                     _OSCCON1	set	2189
  2862  1F68                     _INLVLE	set	8040
  2863  1F5D                     _INLVLD	set	8029
  2864  1F52                     _INLVLC	set	8018
  2865  1F47                     _INLVLB	set	8007
  2866  1F3C                     _INLVLA	set	7996
  2867  1F67                     _SLRCONE	set	8039
  2868  1F5C                     _SLRCOND	set	8028
  2869  1F51                     _SLRCONC	set	8017
  2870  1F46                     _SLRCONB	set	8006
  2871  1F3B                     _SLRCONA	set	7995
  2872  1F5B                     _ODCOND	set	8027
  2873  1F50                     _ODCONC	set	8016
  2874  1F45                     _ODCONB	set	8005
  2875  1F3A                     _ODCONA	set	7994
  2876  1F66                     _ODCONE	set	8038
  2877  1F4F                     _WPUC	set	8015
  2878  1F39                     _WPUA	set	7993
  2879  1F44                     _WPUB	set	8004
  2880  1F65                     _WPUE	set	8037
  2881  1F5A                     _WPUD	set	8026
  2882  1F38                     _ANSELA	set	7992
  2883  1F64                     _ANSELE	set	8036
  2884  1F43                     _ANSELB	set	8003
  2885  1F4E                     _ANSELC	set	8014
  2886  1F59                     _ANSELD	set	8025
  2887                           
  2888                           	psect	stringtext1
  2889  1000                     __pstringtext1:
  2890  1000                     STR_7:
  2891  1000  3446               	retlw	70	;'F'
  2892  1001  3472               	retlw	114	;'r'
  2893  1002  3465               	retlw	101	;'e'
  2894  1003  3465               	retlw	101	;'e'
  2895  1004  347A               	retlw	122	;'z'
  2896  1005  3469               	retlw	105	;'i'
  2897  1006  346E               	retlw	110	;'n'
  2898  1007  3467               	retlw	103	;'g'
  2899  1008  3400               	retlw	0
  2900                           
  2901                           	psect	stringtext2
  2902  1009                     __pstringtext2:
  2903  1009                     STR_2:
  2904  1009  3420               	retlw	32	;' '
  2905  100A  3420               	retlw	32	;' '
  2906  100B  3420               	retlw	32	;' '
  2907  100C  3420               	retlw	32	;' '
  2908  100D  3420               	retlw	32	;' '
  2909  100E  3420               	retlw	32	;' '
  2910  100F  3420               	retlw	32	;' '
  2911  1010  3400               	retlw	0
  2912                           
  2913                           	psect	stringtext3
  2914  1011                     __pstringtext3:
  2915  1011                     STR_3:
  2916  1011  3454               	retlw	84	;'T'
  2917  1012  346F               	retlw	111	;'o'
  2918  1013  346F               	retlw	111	;'o'
  2919  1014  3420               	retlw	32	;' '
  2920  1015  3468               	retlw	104	;'h'
  2921  1016  346F               	retlw	111	;'o'
  2922  1017  3474               	retlw	116	;'t'
  2923  1018  3400               	retlw	0
  2924                           
  2925                           	psect	stringtext4
  2926  1019                     __pstringtext4:
  2927  1019                     STR_5:
  2928  1019  344D               	retlw	77	;'M'
  2929  101A  3469               	retlw	105	;'i'
  2930  101B  346C               	retlw	108	;'l'
  2931  101C  3464               	retlw	100	;'d'
  2932  101D  3400               	retlw	0
  2933                           
  2934                           	psect	stringtext5
  2935  101E                     __pstringtext5:
  2936  101E                     STR_6:
  2937  101E  3443               	retlw	67	;'C'
  2938  101F  346F               	retlw	111	;'o'
  2939  1020  346C               	retlw	108	;'l'
  2940  1021  3464               	retlw	100	;'d'
  2941  1022  3400               	retlw	0
  2942                           
  2943                           	psect	stringtext6
  2944  1023                     __pstringtext6:
  2945  1023                     STR_1:
  2946  1023  344D               	retlw	77	;'M'
  2947  1024  3461               	retlw	97	;'a'
  2948  1025  3478               	retlw	120	;'x'
  2949  1026  3469               	retlw	105	;'i'
  2950  1027  3400               	retlw	0
  2951                           
  2952                           	psect	stringtext7
  2953  1028                     __pstringtext7:
  2954  1028                     STR_4:
  2955  1028  3457               	retlw	87	;'W'
  2956  1029  3461               	retlw	97	;'a'
  2957  102A  3472               	retlw	114	;'r'
  2958  102B  346D               	retlw	109	;'m'
  2959  102C  3400               	retlw	0
  2960                           
  2961                           	psect	stringtext8
  2962  0000                     __pstringtext8:
  2963                           
  2964                           	psect	cinit
  2965  0028                     start_initialization:	
  2966                           ; #config settings
  2967                           
  2968  0028                     __initialization:
  2969                           
  2970                           ; Clear objects allocated to COMMON
  2971  0028  01FC               	clrf	__pbssCOMMON& (0+127)
  2972                           
  2973                           ; Clear objects allocated to BANK0
  2974  0029  0140               	movlb	0	; select bank0
  2975  002A  01CF               	clrf	__pbssBANK0& (0+127)
  2976  002B  01D0               	clrf	(__pbssBANK0+1)& (0+127)
  2977  002C  01D1               	clrf	(__pbssBANK0+2)& (0+127)
  2978  002D  01D2               	clrf	(__pbssBANK0+3)& (0+127)
  2979  002E  01D3               	clrf	(__pbssBANK0+4)& (0+127)
  2980  002F  01D4               	clrf	(__pbssBANK0+5)& (0+127)
  2981  0030  01D5               	clrf	(__pbssBANK0+6)& (0+127)
  2982  0031  01D6               	clrf	(__pbssBANK0+7)& (0+127)
  2983  0032                     end_of_initialization:	
  2984                           ;End of C runtime variable initialization code
  2985                           
  2986  0032                     __end_of__initialization:
  2987  0032  107E               	bcf	int$flags,0	;clear compiler interrupt flag (level 1)
  2988  0033  0140               	movlb	0
  2989  0034  3182  2A8D         	ljmp	_main	;jump to C main() function
  2990                           
  2991                           	psect	bssCOMMON
  2992  007C                     __pbssCOMMON:
  2993  007C                     _start:
  2994  007C                     	ds	1
  2995                           
  2996                           	psect	bssBANK0
  2997  004F                     __pbssBANK0:
  2998  004F                     _stop_hours:
  2999  004F                     	ds	2
  3000  0051                     _stop_minutes:
  3001  0051                     	ds	2
  3002  0053                     _stop_seconds:
  3003  0053                     	ds	2
  3004  0055                     _stop_watchflag:
  3005  0055                     	ds	2
  3006                           
  3007                           	psect	cstackCOMMON
  3008  0070                     __pcstackCOMMON:
  3009  0070                     ?_PMD_Initialize:
  3010  0070                     ?_OSCILLATOR_Initialize:	
  3011                           ; 1 bytes @ 0x0
  3012                           
  3013  0070                     ?_ADCC_Initialize:	
  3014                           ; 1 bytes @ 0x0
  3015                           
  3016  0070                     ?_PIN_MANAGER_Initialize:	
  3017                           ; 1 bytes @ 0x0
  3018                           
  3019  0070                     ?_SYSTEM_Initialize:	
  3020                           ; 1 bytes @ 0x0
  3021                           
  3022  0070                     ?_lcd_cmd:	
  3023                           ; 1 bytes @ 0x0
  3024                           
  3025  0070                     ?_lcd_data:	
  3026                           ; 1 bytes @ 0x0
  3027                           
  3028  0070                     ?_lcd_init:	
  3029                           ; 1 bytes @ 0x0
  3030                           
  3031  0070                     ?_MyISR:	
  3032                           ; 1 bytes @ 0x0
  3033                           
  3034  0070                     ??_MyISR:	
  3035                           ; 1 bytes @ 0x0
  3036                           
  3037  0070                     ?_main:	
  3038                           ; 1 bytes @ 0x0
  3039                           
  3040                           
  3041                           ; 1 bytes @ 0x0
  3042  0070                     	ds	1
  3043  0071                     ??_PMD_Initialize:
  3044  0071                     ??_OSCILLATOR_Initialize:	
  3045                           ; 1 bytes @ 0x1
  3046                           
  3047  0071                     ??_ADCC_Initialize:	
  3048                           ; 1 bytes @ 0x1
  3049                           
  3050  0071                     ??_PIN_MANAGER_Initialize:	
  3051                           ; 1 bytes @ 0x1
  3052                           
  3053  0071                     ??_SYSTEM_Initialize:	
  3054                           ; 1 bytes @ 0x1
  3055                           
  3056  0071                     ??_lcd_cmd:	
  3057                           ; 1 bytes @ 0x1
  3058                           
  3059  0071                     ??_lcd_data:	
  3060                           ; 1 bytes @ 0x1
  3061                           
  3062  0071                     ?_ADCC_GetSingleConversion:	
  3063                           ; 1 bytes @ 0x1
  3064                           
  3065  0071                     ?__Umul8_16:	
  3066                           ; 2 bytes @ 0x1
  3067                           
  3068  0071                     ?___lwdiv:	
  3069                           ; 2 bytes @ 0x1
  3070                           
  3071  0071                     ?___lwmod:	
  3072                           ; 2 bytes @ 0x1
  3073                           
  3074  0071                     ?___xxtofl:	
  3075                           ; 2 bytes @ 0x1
  3076                           
  3077  0071                     lcd_cmd@cmd:	
  3078                           ; 4 bytes @ 0x1
  3079                           
  3080  0071                     lcd_data@dat:	
  3081                           ; 1 bytes @ 0x1
  3082                           
  3083  0071                     __Umul8_16@multiplicand:	
  3084                           ; 1 bytes @ 0x1
  3085                           
  3086  0071                     ___lwdiv@divisor:	
  3087                           ; 1 bytes @ 0x1
  3088                           
  3089  0071                     ___lwmod@divisor:	
  3090                           ; 2 bytes @ 0x1
  3091                           
  3092  0071                     ___xxtofl@val:	
  3093                           ; 2 bytes @ 0x1
  3094                           
  3095                           
  3096                           ; 4 bytes @ 0x1
  3097  0071                     	ds	1
  3098  0072                     ??_lcd_init:
  3099  0072                     ?_cursorxy:	
  3100                           ; 1 bytes @ 0x2
  3101                           
  3102  0072                     cursorxy@y:	
  3103                           ; 1 bytes @ 0x2
  3104                           
  3105                           
  3106                           ; 1 bytes @ 0x2
  3107  0072                     	ds	1
  3108  0073                     ??_ADCC_GetSingleConversion:
  3109  0073                     ??__Umul8_16:	
  3110                           ; 1 bytes @ 0x3
  3111                           
  3112  0073                     ??_cursorxy:	
  3113                           ; 1 bytes @ 0x3
  3114                           
  3115  0073                     cursorxy@x:	
  3116                           ; 1 bytes @ 0x3
  3117                           
  3118  0073                     ADCC_GetSingleConversion@channel:	
  3119                           ; 1 bytes @ 0x3
  3120                           
  3121  0073                     ___lwdiv@dividend:	
  3122                           ; 1 bytes @ 0x3
  3123                           
  3124  0073                     ___lwmod@dividend:	
  3125                           ; 2 bytes @ 0x3
  3126                           
  3127                           
  3128                           ; 2 bytes @ 0x3
  3129  0073                     	ds	1
  3130  0074                     ?_lcd_out:
  3131  0074                     lcd_out@y:	
  3132                           ; 1 bytes @ 0x4
  3133                           
  3134                           
  3135                           ; 1 bytes @ 0x4
  3136  0074                     	ds	1
  3137  0075                     ??___lwdiv:
  3138  0075                     ??___lwmod:	
  3139                           ; 1 bytes @ 0x5
  3140                           
  3141  0075                     ??___xxtofl:	
  3142                           ; 1 bytes @ 0x5
  3143                           
  3144  0075                     lcd_out@str:	
  3145                           ; 1 bytes @ 0x5
  3146                           
  3147  0075                     __Umul8_16@product:	
  3148                           ; 2 bytes @ 0x5
  3149                           
  3150                           
  3151                           ; 2 bytes @ 0x5
  3152  0075                     	ds	1
  3153  0076                     ___lwmod@counter:
  3154  0076                     ___lwdiv@quotient:	
  3155                           ; 1 bytes @ 0x6
  3156                           
  3157                           
  3158                           ; 2 bytes @ 0x6
  3159  0076                     	ds	1
  3160  0077                     ??_lcd_out:
  3161  0077                     __Umul8_16@word_mpld:	
  3162                           ; 1 bytes @ 0x7
  3163                           
  3164                           
  3165                           ; 2 bytes @ 0x7
  3166  0077                     	ds	1
  3167  0078                     lcd_out@x:
  3168  0078                     ___lwdiv@counter:	
  3169                           ; 1 bytes @ 0x8
  3170                           
  3171                           
  3172                           ; 1 bytes @ 0x8
  3173  0078                     	ds	1
  3174  0079                     ??_lcd_print:
  3175  0079                     __Umul8_16@multiplier:	
  3176                           ; 1 bytes @ 0x9
  3177                           
  3178                           
  3179                           ; 1 bytes @ 0x9
  3180  0079                     	ds	1
  3181  007A                     ___fltol@sign1:
  3182                           
  3183                           ; 1 bytes @ 0xA
  3184  007A                     	ds	1
  3185  007B                     ___fltol@exp1:
  3186                           
  3187                           ; 1 bytes @ 0xB
  3188  007B                     	ds	1
  3189                           
  3190                           	psect	cstackBANK0
  3191  0020                     __pcstackBANK0:
  3192  0020                     ?_lcd_print:
  3193  0020                     lcd_print@coloumn:	
  3194                           ; 1 bytes @ 0x0
  3195                           
  3196  0020                     ___xxtofl@sign:	
  3197                           ; 1 bytes @ 0x0
  3198                           
  3199                           
  3200                           ; 1 bytes @ 0x0
  3201  0020                     	ds	1
  3202  0021                     ___xxtofl@exp:
  3203  0021                     lcd_print@value:	
  3204                           ; 1 bytes @ 0x1
  3205                           
  3206                           
  3207                           ; 2 bytes @ 0x1
  3208  0021                     	ds	1
  3209  0022                     ___xxtofl@arg:
  3210                           
  3211                           ; 4 bytes @ 0x2
  3212  0022                     	ds	1
  3213  0023                     lcd_print@digits:
  3214                           
  3215                           ; 2 bytes @ 0x3
  3216  0023                     	ds	2
  3217  0025                     lcd_print@unit:
  3218                           
  3219                           ; 2 bytes @ 0x5
  3220  0025                     	ds	1
  3221  0026                     ?___flmul:
  3222  0026                     ___flmul@b:	
  3223                           ; 4 bytes @ 0x6
  3224                           
  3225                           
  3226                           ; 4 bytes @ 0x6
  3227  0026                     	ds	1
  3228  0027                     lcd_print@tens:
  3229                           
  3230                           ; 2 bytes @ 0x7
  3231  0027                     	ds	2
  3232  0029                     lcd_print@hundred:
  3233                           
  3234                           ; 2 bytes @ 0x9
  3235  0029                     	ds	1
  3236  002A                     ___flmul@a:
  3237                           
  3238                           ; 4 bytes @ 0xA
  3239  002A                     	ds	1
  3240  002B                     lcd_print@thousand:
  3241                           
  3242                           ; 2 bytes @ 0xB
  3243  002B                     	ds	2
  3244  002D                     lcd_print@million:
  3245                           
  3246                           ; 2 bytes @ 0xD
  3247  002D                     	ds	1
  3248  002E                     ??___flmul:
  3249                           
  3250                           ; 1 bytes @ 0xE
  3251  002E                     	ds	1
  3252  002F                     lcd_print@row:
  3253                           
  3254                           ; 1 bytes @ 0xF
  3255  002F                     	ds	1
  3256  0030                     lcd_print@temp:
  3257                           
  3258                           ; 2 bytes @ 0x10
  3259  0030                     	ds	2
  3260  0032                     lcd_print@flag:
  3261                           
  3262                           ; 1 bytes @ 0x12
  3263  0032                     	ds	1
  3264  0033                     ___flmul@sign:
  3265                           
  3266                           ; 1 bytes @ 0x13
  3267  0033                     	ds	1
  3268  0034                     ___flmul@grs:
  3269                           
  3270                           ; 4 bytes @ 0x14
  3271  0034                     	ds	4
  3272  0038                     ___flmul@aexp:
  3273                           
  3274                           ; 1 bytes @ 0x18
  3275  0038                     	ds	1
  3276  0039                     ___flmul@bexp:
  3277                           
  3278                           ; 1 bytes @ 0x19
  3279  0039                     	ds	1
  3280  003A                     ___flmul@prod:
  3281                           
  3282                           ; 4 bytes @ 0x1A
  3283  003A                     	ds	4
  3284  003E                     ___flmul@temp:
  3285                           
  3286                           ; 2 bytes @ 0x1E
  3287  003E                     	ds	2
  3288  0040                     ?___fltol:
  3289  0040                     ___fltol@f1:	
  3290                           ; 4 bytes @ 0x20
  3291                           
  3292                           
  3293                           ; 4 bytes @ 0x20
  3294  0040                     	ds	4
  3295  0044                     ??___fltol:
  3296                           
  3297                           ; 1 bytes @ 0x24
  3298  0044                     	ds	5
  3299  0049                     ??_main:
  3300                           
  3301                           ; 1 bytes @ 0x29
  3302  0049                     	ds	2
  3303  004B                     main@voltage:
  3304                           
  3305                           ; 2 bytes @ 0x2B
  3306  004B                     	ds	2
  3307  004D                     main@temp_holder:
  3308                           
  3309                           ; 2 bytes @ 0x2D
  3310  004D                     	ds	2
  3311                           
  3312                           	psect	maintext
  3313  028D                     __pmaintext:	
  3314 ;;
  3315 ;;Main: autosize = 0, tempsize = 2, incstack = 0, save=0
  3316 ;;
  3317 ;; *************** function _main *****************
  3318 ;; Defined at:
  3319 ;;		line 189 in file "main.c"
  3320 ;; Parameters:    Size  Location     Type
  3321 ;;		None
  3322 ;; Auto vars:     Size  Location     Type
  3323 ;;  temp_holder     2   45[BANK0 ] unsigned int 
  3324 ;;  voltage         2   43[BANK0 ] unsigned short 
  3325 ;; Return value:  Size  Location     Type
  3326 ;;                  1    wreg      void 
  3327 ;; Registers used:
  3328 ;;		wreg, fsr0l, fsr0h, status,2, status,0, pclath, cstack
  3329 ;; Tracked objects:
  3330 ;;		On entry : B3F/0
  3331 ;;		On exit  : 0/0
  3332 ;;		Unchanged: 0/0
  3333 ;; Data sizes:     COMMON   BANK0   BANK1   BANK2   BANK3   BANK4   BANK5   BANK6   BANK7   BANK8   BANK9  BANK10  BANK1
      +1  BANK12  BANK13  BANK14  BANK15  BANK16  BANK17  BANK18  BANK19  BANK20  BANK21  BANK22  BANK23  BANK24  BANK25  BANK2
      +6  BANK27  BANK28  BANK29  BANK30  BANK31  BANK32  BANK33  BANK34  BANK35  BANK36  BANK37  BANK38  BANK39  BANK40  BANK4
      +1  BANK42  BANK43  BANK44  BANK45  BANK46  BANK47  BANK48  BANK49  BANK50
  3334 ;;      Params:         0       0       0       0       0       0       0       0       0       0       0       0       
      +0       0       0       0       0       0       0       0       0       0       0       0       0       0       0       
      +0       0       0       0       0       0       0       0       0       0       0       0       0       0       0       
      +0       0       0       0       0       0       0       0       0       0
  3335 ;;      Locals:         0       4       0       0       0       0       0       0       0       0       0       0       
      +0       0       0       0       0       0       0       0       0       0       0       0       0       0       0       
      +0       0       0       0       0       0       0       0       0       0       0       0       0       0       0       
      +0       0       0       0       0       0       0       0       0       0
  3336 ;;      Temps:          0       2       0       0       0       0       0       0       0       0       0       0       
      +0       0       0       0       0       0       0       0       0       0       0       0       0       0       0       
      +0       0       0       0       0       0       0       0       0       0       0       0       0       0       0       
      +0       0       0       0       0       0       0       0       0       0
  3337 ;;      Totals:         0       6       0       0       0       0       0       0       0       0       0       0       
      +0       0       0       0       0       0       0       0       0       0       0       0       0       0       0       
      +0       0       0       0       0       0       0       0       0       0       0       0       0       0       0       
      +0       0       0       0       0       0       0       0       0       0
  3338 ;;Total ram usage:        6 bytes
  3339 ;; Hardware stack levels required when called: 4
  3340 ;; This function calls:
  3341 ;;		_ADCC_GetSingleConversion
  3342 ;;		_SYSTEM_Initialize
  3343 ;;		___flmul
  3344 ;;		___fltol
  3345 ;;		___xxtofl
  3346 ;;		_lcd_data
  3347 ;;		_lcd_init
  3348 ;;		_lcd_out
  3349 ;;		_lcd_print
  3350 ;; This function is called by:
  3351 ;;		Startup code after reset
  3352 ;; This function uses a non-reentrant model
  3353 ;;
  3354                           
  3355                           
  3356                           ;psect for function _main
  3357  028D                     _main:
  3358  028D                     l2110:	
  3359                           ;incstack = 0
  3360                           ; Regs used in _main: [wreg-fsr0h+status,2+status,0+pclath+cstack]
  3361                           
  3362                           
  3363                           ;main.c: 192:     SYSTEM_Initialize();
  3364  028D  318F  27F3  3182   	fcall	_SYSTEM_Initialize
  3365  0290                     l2112:
  3366  0290                     l2114:
  3367                           
  3368                           ;main.c: 203:     lcd_init();
  3369  0290  3187  2712  3182   	fcall	_lcd_init
  3370  0293                     l2116:
  3371                           
  3372                           ;main.c: 205:     lcd_out(1,1,"Maxi");
  3373  0293  01F4               	clrf	lcd_out@y
  3374  0294  0AF4               	incf	lcd_out@y,f
  3375  0295  3023               	movlw	low (STR_1| (0+32768))
  3376  0296  00F5               	movwf	lcd_out@str
  3377  0297  3090               	movlw	high (STR_1| (0+32768))
  3378  0298  00F6               	movwf	lcd_out@str+1
  3379  0299  3001               	movlw	1
  3380  029A  3187  2792  3182   	fcall	_lcd_out
  3381  029D                     l2118:
  3382                           
  3383                           ;main.c: 207:  lcd_print(2,1,stop_minutes,2);
  3384  029D  0140               	movlb	0	; select bank0
  3385  029E  01A0               	clrf	lcd_print@coloumn
  3386  029F  0AA0               	incf	lcd_print@coloumn,f
  3387  02A0  0852               	movf	_stop_minutes+1,w
  3388  02A1  00A2               	movwf	lcd_print@value+1
  3389  02A2  0851               	movf	_stop_minutes,w
  3390  02A3  00A1               	movwf	lcd_print@value
  3391  02A4  3002               	movlw	2
  3392  02A5  00A3               	movwf	lcd_print@digits
  3393  02A6  3000               	movlw	0
  3394  02A7  00A4               	movwf	lcd_print@digits+1
  3395  02A8  3002               	movlw	2
  3396  02A9  3184  2436  3182   	fcall	_lcd_print
  3397  02AC                     l2120:
  3398                           
  3399                           ;main.c: 208:  lcd_data(46);
  3400  02AC  302E               	movlw	46
  3401  02AD  3187  27C9  3182   	fcall	_lcd_data
  3402  02B0                     l2122:
  3403                           
  3404                           ;main.c: 209:  lcd_print(2,4,stop_seconds,2);
  3405  02B0  3004               	movlw	4
  3406  02B1  0140               	movlb	0	; select bank0
  3407  02B2  00C9               	movwf	??_main
  3408  02B3  0849               	movf	??_main,w
  3409  02B4  00A0               	movwf	lcd_print@coloumn
  3410  02B5  0854               	movf	_stop_seconds+1,w
  3411  02B6  00A2               	movwf	lcd_print@value+1
  3412  02B7  0853               	movf	_stop_seconds,w
  3413  02B8  00A1               	movwf	lcd_print@value
  3414  02B9  3002               	movlw	2
  3415  02BA  00A3               	movwf	lcd_print@digits
  3416  02BB  3000               	movlw	0
  3417  02BC  00A4               	movwf	lcd_print@digits+1
  3418  02BD  3002               	movlw	2
  3419  02BE  3184  2436  3182   	fcall	_lcd_print
  3420  02C1                     l2124:
  3421                           
  3422                           ;main.c: 210:  _delay((unsigned long)((100)*(1000000/4000.0)));
  3423  02C1  3021               	movlw	33
  3424  02C2  0140               	movlb	0	; select bank0
  3425  02C3  00C9               	movwf	??_main
  3426  02C4  3076               	movlw	118
  3427  02C5                     u1977:
  3428  02C5  0B89               	decfsz	9,f
  3429  02C6  2AC5               	goto	u1977
  3430  02C7  0BC9               	decfsz	??_main,f
  3431  02C8  2AC5               	goto	u1977
  3432  02C9  0000               	nop
  3433  02CA                     l2126:
  3434                           
  3435                           ;main.c: 221:     INTCONbits.GIE = 1;
  3436  02CA  178B               	bsf	11,7	;volatile
  3437  02CB                     l2128:
  3438                           
  3439                           ;main.c: 222:     INTCONbits.INTEDG = 0;
  3440  02CB  100B               	bcf	11,0	;volatile
  3441  02CC                     l2130:
  3442                           
  3443                           ;main.c: 223:     PIR0bits.INTF = 0;
  3444  02CC  014E               	movlb	14	; select bank14
  3445  02CD  100C               	bcf	12,0	;volatile
  3446  02CE                     l2132:
  3447                           
  3448                           ;main.c: 224:     PIE0bits.INTE = 1;
  3449  02CE  1416               	bsf	22,0	;volatile
  3450  02CF                     l2134:
  3451                           
  3452                           ;main.c: 237:     {;main.c: 243:   voltage = ADCC_GetSingleConversion(channel_ANA1);
  3453  02CF  3001               	movlw	1
  3454  02D0  3187  27EB  3182   	fcall	_ADCC_GetSingleConversion
  3455  02D3  0872               	movf	?_ADCC_GetSingleConversion+1,w
  3456  02D4  0140               	movlb	0	; select bank0
  3457  02D5  00CC               	movwf	main@voltage+1
  3458  02D6  0871               	movf	?_ADCC_GetSingleConversion,w
  3459  02D7  00CB               	movwf	main@voltage
  3460  02D8                     l2136:
  3461                           
  3462                           ;main.c: 244:         temp_holder=voltage*3.22;
  3463  02D8  084B               	movf	main@voltage,w
  3464  02D9  00F1               	movwf	___xxtofl@val
  3465  02DA  084C               	movf	main@voltage+1,w
  3466  02DB  00F2               	movwf	___xxtofl@val+1
  3467  02DC  01F3               	clrf	___xxtofl@val+2
  3468  02DD  01F4               	clrf	___xxtofl@val+3
  3469  02DE  3000               	movlw	0
  3470  02DF  3185  2547  3182   	fcall	___xxtofl
  3471  02E2  0874               	movf	?___xxtofl+3,w
  3472  02E3  0140               	movlb	0	; select bank0
  3473  02E4  00AD               	movwf	___flmul@a+3
  3474  02E5  0873               	movf	?___xxtofl+2,w
  3475  02E6  00AC               	movwf	___flmul@a+2
  3476  02E7  0872               	movf	?___xxtofl+1,w
  3477  02E8  00AB               	movwf	___flmul@a+1
  3478  02E9  0871               	movf	?___xxtofl,w
  3479  02EA  00AA               	movwf	___flmul@a
  3480  02EB  3040               	movlw	64
  3481  02EC  00A9               	movwf	___flmul@b+3
  3482  02ED  304E               	movlw	78
  3483  02EE  00A8               	movwf	___flmul@b+2
  3484  02EF  3014               	movlw	20
  3485  02F0  00A7               	movwf	___flmul@b+1
  3486  02F1  307B               	movlw	123
  3487  02F2  00A6               	movwf	___flmul@b
  3488  02F3  3180  2036  3182   	fcall	___flmul
  3489  02F6  0140               	movlb	0	; select bank0
  3490  02F7  0829               	movf	?___flmul+3,w
  3491  02F8  00C3               	movwf	___fltol@f1+3
  3492  02F9  0828               	movf	?___flmul+2,w
  3493  02FA  00C2               	movwf	___fltol@f1+2
  3494  02FB  0827               	movf	?___flmul+1,w
  3495  02FC  00C1               	movwf	___fltol@f1+1
  3496  02FD  0826               	movf	?___flmul,w
  3497  02FE  00C0               	movwf	___fltol@f1
  3498  02FF  3185  25F4  3182   	fcall	___fltol
  3499  0302  0140               	movlb	0	; select bank0
  3500  0303  0841               	movf	?___fltol+1,w
  3501  0304  00CE               	movwf	main@temp_holder+1
  3502  0305  0840               	movf	?___fltol,w
  3503  0306  00CD               	movwf	main@temp_holder
  3504  0307                     l2138:
  3505                           
  3506                           ;main.c: 245:         lcd_print(1,10,temp_holder,2);
  3507  0307  300A               	movlw	10
  3508  0308  00C9               	movwf	??_main
  3509  0309  0849               	movf	??_main,w
  3510  030A  00A0               	movwf	lcd_print@coloumn
  3511  030B  084E               	movf	main@temp_holder+1,w
  3512  030C  00A2               	movwf	lcd_print@value+1
  3513  030D  084D               	movf	main@temp_holder,w
  3514  030E  00A1               	movwf	lcd_print@value
  3515  030F  3002               	movlw	2
  3516  0310  00A3               	movwf	lcd_print@digits
  3517  0311  3000               	movlw	0
  3518  0312  00A4               	movwf	lcd_print@digits+1
  3519  0313  3001               	movlw	1
  3520  0314  3184  2436  3182   	fcall	_lcd_print
  3521  0317                     l2140:
  3522                           
  3523                           ;main.c: 246:         lcd_data(223);
  3524  0317  30DF               	movlw	223
  3525  0318  3187  27C9  3182   	fcall	_lcd_data
  3526  031B                     l2142:
  3527                           
  3528                           ;main.c: 247:         lcd_data('C');
  3529  031B  3043               	movlw	67
  3530  031C  3187  27C9  3182   	fcall	_lcd_data
  3531  031F                     l2144:
  3532                           
  3533                           ;main.c: 269:   lcd_out(2,10,"       "); _delay((unsigned long)((5)*(1000000/4000.0)));
  3534  031F  300A               	movlw	10
  3535  0320  0140               	movlb	0	; select bank0
  3536  0321  00C9               	movwf	??_main
  3537  0322  0849               	movf	??_main,w
  3538  0323  00F4               	movwf	lcd_out@y
  3539  0324  3009               	movlw	low (STR_2| (0+32768))
  3540  0325  00F5               	movwf	lcd_out@str
  3541  0326  3090               	movlw	high (STR_2| (0+32768))
  3542  0327  00F6               	movwf	lcd_out@str+1
  3543  0328  3002               	movlw	2
  3544  0329  3187  2792  3182   	fcall	_lcd_out
  3545  032C                     l2146:
  3546  032C  30FA               	movlw	250
  3547  032D                     u1987:
  3548  032D  3200               	nop2
  3549  032E  0B89               	decfsz	9,f
  3550  032F  2B2D               	goto	u1987
  3551  0330                     l2148:
  3552                           
  3553                           ;main.c: 271:   if (temp_holder >= 26){
  3554  0330  3000               	movlw	0
  3555  0331  0140               	movlb	0	; select bank0
  3556  0332  024E               	subwf	main@temp_holder+1,w
  3557  0333  301A               	movlw	26
  3558  0334  1903               	skipnz
  3559  0335  024D               	subwf	main@temp_holder,w
  3560  0336  1C03               	skipc
  3561  0337  2B39               	goto	u1871
  3562  0338  2B3A               	goto	u1870
  3563  0339                     u1871:
  3564  0339  2B47               	goto	l2152
  3565  033A                     u1870:
  3566  033A                     l2150:
  3567                           
  3568                           ;main.c: 272:    lcd_out(2,10,"Too hot");
  3569  033A  300A               	movlw	10
  3570  033B  00C9               	movwf	??_main
  3571  033C  0849               	movf	??_main,w
  3572  033D  00F4               	movwf	lcd_out@y
  3573  033E  3011               	movlw	low (STR_3| (0+32768))
  3574  033F  00F5               	movwf	lcd_out@str
  3575  0340  3090               	movlw	high (STR_3| (0+32768))
  3576  0341  00F6               	movwf	lcd_out@str+1
  3577  0342  3002               	movlw	2
  3578  0343  3187  2792  3182   	fcall	_lcd_out
  3579                           
  3580                           ;main.c: 273:   }
  3581  0346  2B95               	goto	l2166
  3582  0347                     l2152:
  3583  0347  3000               	movlw	0
  3584  0348  024E               	subwf	main@temp_holder+1,w
  3585  0349  3016               	movlw	22
  3586  034A  1903               	skipnz
  3587  034B  024D               	subwf	main@temp_holder,w
  3588  034C  1C03               	skipc
  3589  034D  2B4F               	goto	u1881
  3590  034E  2B50               	goto	u1880
  3591  034F                     u1881:
  3592  034F  2B5D               	goto	l2156
  3593  0350                     u1880:
  3594  0350                     l2154:
  3595                           
  3596                           ;main.c: 275:    lcd_out(2,10,"Warm");
  3597  0350  300A               	movlw	10
  3598  0351  00C9               	movwf	??_main
  3599  0352  0849               	movf	??_main,w
  3600  0353  00F4               	movwf	lcd_out@y
  3601  0354  3028               	movlw	low (STR_4| (0+32768))
  3602  0355  00F5               	movwf	lcd_out@str
  3603  0356  3090               	movlw	high (STR_4| (0+32768))
  3604  0357  00F6               	movwf	lcd_out@str+1
  3605  0358  3002               	movlw	2
  3606  0359  3187  2792  3182   	fcall	_lcd_out
  3607                           
  3608                           ;main.c: 276:   }
  3609  035C  2B95               	goto	l2166
  3610  035D                     l2156:
  3611  035D  3000               	movlw	0
  3612  035E  024E               	subwf	main@temp_holder+1,w
  3613  035F  3014               	movlw	20
  3614  0360  1903               	skipnz
  3615  0361  024D               	subwf	main@temp_holder,w
  3616  0362  1C03               	skipc
  3617  0363  2B65               	goto	u1891
  3618  0364  2B66               	goto	u1890
  3619  0365                     u1891:
  3620  0365  2B73               	goto	l2160
  3621  0366                     u1890:
  3622  0366                     l2158:
  3623                           
  3624                           ;main.c: 278:    lcd_out(2,10,"Mild");
  3625  0366  300A               	movlw	10
  3626  0367  00C9               	movwf	??_main
  3627  0368  0849               	movf	??_main,w
  3628  0369  00F4               	movwf	lcd_out@y
  3629  036A  3019               	movlw	low (STR_5| (0+32768))
  3630  036B  00F5               	movwf	lcd_out@str
  3631  036C  3090               	movlw	high (STR_5| (0+32768))
  3632  036D  00F6               	movwf	lcd_out@str+1
  3633  036E  3002               	movlw	2
  3634  036F  3187  2792  3182   	fcall	_lcd_out
  3635                           
  3636                           ;main.c: 279:   }
  3637  0372  2B95               	goto	l2166
  3638  0373                     l2160:
  3639  0373  3000               	movlw	0
  3640  0374  024E               	subwf	main@temp_holder+1,w
  3641  0375  3011               	movlw	17
  3642  0376  1903               	skipnz
  3643  0377  024D               	subwf	main@temp_holder,w
  3644  0378  1C03               	skipc
  3645  0379  2B7B               	goto	u1901
  3646  037A  2B7C               	goto	u1900
  3647  037B                     u1901:
  3648  037B  2B89               	goto	l2164
  3649  037C                     u1900:
  3650  037C                     l2162:
  3651                           
  3652                           ;main.c: 281:    lcd_out(2,10,"Cold");
  3653  037C  300A               	movlw	10
  3654  037D  00C9               	movwf	??_main
  3655  037E  0849               	movf	??_main,w
  3656  037F  00F4               	movwf	lcd_out@y
  3657  0380  301E               	movlw	low (STR_6| (0+32768))
  3658  0381  00F5               	movwf	lcd_out@str
  3659  0382  3090               	movlw	high (STR_6| (0+32768))
  3660  0383  00F6               	movwf	lcd_out@str+1
  3661  0384  3002               	movlw	2
  3662  0385  3187  2792  3182   	fcall	_lcd_out
  3663                           
  3664                           ;main.c: 282:   }
  3665  0388  2B95               	goto	l2166
  3666  0389                     l2164:
  3667                           
  3668                           ;main.c: 284:    lcd_out(2,10,"Freezing");
  3669  0389  300A               	movlw	10
  3670  038A  00C9               	movwf	??_main
  3671  038B  0849               	movf	??_main,w
  3672  038C  00F4               	movwf	lcd_out@y
  3673  038D  3000               	movlw	low (STR_7| (0+32768))
  3674  038E  00F5               	movwf	lcd_out@str
  3675  038F  3090               	movlw	high (STR_7| (0+32768))
  3676  0390  00F6               	movwf	lcd_out@str+1
  3677  0391  3002               	movlw	2
  3678  0392  3187  2792  3182   	fcall	_lcd_out
  3679  0395                     l2166:
  3680                           
  3681                           ;main.c: 290:   if (stop_watchflag){
  3682  0395  0140               	movlb	0	; select bank0
  3683  0396  0855               	movf	_stop_watchflag,w
  3684  0397  0456               	iorwf	_stop_watchflag+1,w
  3685  0398  1903               	btfsc	3,2
  3686  0399  2B9B               	goto	u1911
  3687  039A  2B9C               	goto	u1910
  3688  039B                     u1911:
  3689  039B  2BCD               	goto	l2182
  3690  039C                     u1910:
  3691  039C                     l2168:
  3692                           
  3693                           ;main.c: 291:    if(stop_seconds<59){
  3694  039C  0854               	movf	_stop_seconds+1,w
  3695  039D  3A80               	xorlw	128
  3696  039E  00C9               	movwf	??_main
  3697  039F  3080               	movlw	128
  3698  03A0  0249               	subwf	??_main,w
  3699  03A1  1D03               	skipz
  3700  03A2  2BA5               	goto	u1925
  3701  03A3  303B               	movlw	59
  3702  03A4  0253               	subwf	_stop_seconds,w
  3703  03A5                     u1925:
  3704  03A5  1803               	skipnc
  3705  03A6  2BA8               	goto	u1921
  3706  03A7  2BA9               	goto	u1920
  3707  03A8                     u1921:
  3708  03A8  2BAF               	goto	l2172
  3709  03A9                     u1920:
  3710  03A9                     l2170:
  3711                           
  3712                           ;main.c: 292:     stop_seconds++;
  3713  03A9  3001               	movlw	1
  3714  03AA  0140               	movlb	0	; select bank0
  3715  03AB  07D3               	addwf	_stop_seconds,f
  3716  03AC  3000               	movlw	0
  3717  03AD  3DD4               	addwfc	_stop_seconds+1,f
  3718                           
  3719                           ;main.c: 293:    }
  3720  03AE  2BD3               	goto	l2184
  3721  03AF                     l2172:
  3722                           
  3723                           ;main.c: 295:     stop_seconds=0;
  3724  03AF  0140               	movlb	0	; select bank0
  3725  03B0  01D3               	clrf	_stop_seconds
  3726  03B1  01D4               	clrf	_stop_seconds+1
  3727  03B2                     l2174:
  3728                           
  3729                           ;main.c: 296:     if(stop_minutes<59){
  3730  03B2  0852               	movf	_stop_minutes+1,w
  3731  03B3  3A80               	xorlw	128
  3732  03B4  00C9               	movwf	??_main
  3733  03B5  3080               	movlw	128
  3734  03B6  0249               	subwf	??_main,w
  3735  03B7  1D03               	skipz
  3736  03B8  2BBB               	goto	u1935
  3737  03B9  303B               	movlw	59
  3738  03BA  0251               	subwf	_stop_minutes,w
  3739  03BB                     u1935:
  3740  03BB  1803               	skipnc
  3741  03BC  2BBE               	goto	u1931
  3742  03BD  2BBF               	goto	u1930
  3743  03BE                     u1931:
  3744  03BE  2BC5               	goto	l2178
  3745  03BF                     u1930:
  3746  03BF                     l2176:
  3747                           
  3748                           ;main.c: 297:      stop_minutes++;
  3749  03BF  3001               	movlw	1
  3750  03C0  0140               	movlb	0	; select bank0
  3751  03C1  07D1               	addwf	_stop_minutes,f
  3752  03C2  3000               	movlw	0
  3753  03C3  3DD2               	addwfc	_stop_minutes+1,f
  3754                           
  3755                           ;main.c: 298:     }
  3756  03C4  2BD3               	goto	l2184
  3757  03C5                     l2178:
  3758                           
  3759                           ;main.c: 300:      stop_minutes = 0;
  3760  03C5  0140               	movlb	0	; select bank0
  3761  03C6  01D1               	clrf	_stop_minutes
  3762  03C7  01D2               	clrf	_stop_minutes+1
  3763  03C8                     l2180:
  3764                           
  3765                           ;main.c: 301:      stop_hours++;
  3766  03C8  3001               	movlw	1
  3767  03C9  07CF               	addwf	_stop_hours,f
  3768  03CA  3000               	movlw	0
  3769  03CB  3DD0               	addwfc	_stop_hours+1,f
  3770  03CC  2BD3               	goto	l2184
  3771  03CD                     l2182:
  3772                           
  3773                           ;main.c: 306:    stop_hours = 0;
  3774  03CD  01CF               	clrf	_stop_hours
  3775  03CE  01D0               	clrf	_stop_hours+1
  3776                           
  3777                           ;main.c: 307:    stop_minutes=0;
  3778  03CF  01D1               	clrf	_stop_minutes
  3779  03D0  01D2               	clrf	_stop_minutes+1
  3780                           
  3781                           ;main.c: 308:    stop_seconds=0;
  3782  03D1  01D3               	clrf	_stop_seconds
  3783  03D2  01D4               	clrf	_stop_seconds+1
  3784  03D3                     l2184:
  3785                           
  3786                           ;main.c: 310:   lcd_print(2,1,stop_hours,2);
  3787  03D3  01A0               	clrf	lcd_print@coloumn
  3788  03D4  0AA0               	incf	lcd_print@coloumn,f
  3789  03D5  0850               	movf	_stop_hours+1,w
  3790  03D6  00A2               	movwf	lcd_print@value+1
  3791  03D7  084F               	movf	_stop_hours,w
  3792  03D8  00A1               	movwf	lcd_print@value
  3793  03D9  3002               	movlw	2
  3794  03DA  00A3               	movwf	lcd_print@digits
  3795  03DB  3000               	movlw	0
  3796  03DC  00A4               	movwf	lcd_print@digits+1
  3797  03DD  3002               	movlw	2
  3798  03DE  3184  2436  3182   	fcall	_lcd_print
  3799  03E1                     l2186:
  3800                           
  3801                           ;main.c: 311:   lcd_data(46);
  3802  03E1  302E               	movlw	46
  3803  03E2  3187  27C9  3182   	fcall	_lcd_data
  3804  03E5                     l2188:
  3805                           
  3806                           ;main.c: 312:   lcd_print(2,4,stop_minutes,2);
  3807  03E5  3004               	movlw	4
  3808  03E6  0140               	movlb	0	; select bank0
  3809  03E7  00C9               	movwf	??_main
  3810  03E8  0849               	movf	??_main,w
  3811  03E9  00A0               	movwf	lcd_print@coloumn
  3812  03EA  0852               	movf	_stop_minutes+1,w
  3813  03EB  00A2               	movwf	lcd_print@value+1
  3814  03EC  0851               	movf	_stop_minutes,w
  3815  03ED  00A1               	movwf	lcd_print@value
  3816  03EE  3002               	movlw	2
  3817  03EF  00A3               	movwf	lcd_print@digits
  3818  03F0  3000               	movlw	0
  3819  03F1  00A4               	movwf	lcd_print@digits+1
  3820  03F2  3002               	movlw	2
  3821  03F3  3184  2436  3182   	fcall	_lcd_print
  3822  03F6                     l2190:
  3823                           
  3824                           ;main.c: 313:   lcd_data(46);
  3825  03F6  302E               	movlw	46
  3826  03F7  3187  27C9  3182   	fcall	_lcd_data
  3827  03FA                     l2192:
  3828                           
  3829                           ;main.c: 314:   lcd_print(2,7,stop_seconds,2);
  3830  03FA  3007               	movlw	7
  3831  03FB  0140               	movlb	0	; select bank0
  3832  03FC  00C9               	movwf	??_main
  3833  03FD  0849               	movf	??_main,w
  3834  03FE  00A0               	movwf	lcd_print@coloumn
  3835  03FF  0854               	movf	_stop_seconds+1,w
  3836  0400  00A2               	movwf	lcd_print@value+1
  3837  0401  0853               	movf	_stop_seconds,w
  3838  0402  00A1               	movwf	lcd_print@value
  3839  0403  3002               	movlw	2
  3840  0404  00A3               	movwf	lcd_print@digits
  3841  0405  3000               	movlw	0
  3842  0406  00A4               	movwf	lcd_print@digits+1
  3843  0407  3002               	movlw	2
  3844  0408  3184  2436  3182   	fcall	_lcd_print
  3845  040B                     l2194:
  3846                           
  3847                           ;main.c: 319:   _delay((unsigned long)((1000)*(1000000/4000.0)));
  3848  040B  3002               	movlw	2
  3849  040C  0140               	movlb	0	; select bank0
  3850  040D  00CA               	movwf	??_main+1
  3851  040E  3045               	movlw	69
  3852  040F  00C9               	movwf	??_main
  3853  0410  30A9               	movlw	169
  3854  0411                     u1997:
  3855  0411  0B89               	decfsz	9,f
  3856  0412  2C11               	goto	u1997
  3857  0413  0BC9               	decfsz	??_main,f
  3858  0414  2C11               	goto	u1997
  3859  0415  0BCA               	decfsz	??_main+1,f
  3860  0416  2C11               	goto	u1997
  3861  0417  3200               	nop2
  3862  0418                     l2196:
  3863                           
  3864                           ;main.c: 336:         if(PORTBbits.RB4 == 0){
  3865  0418  0140               	movlb	0	; select bank0
  3866  0419  1A0D               	btfsc	13,4	;volatile
  3867  041A  2C1C               	goto	u1941
  3868  041B  2C1D               	goto	u1940
  3869  041C                     u1941:
  3870  041C  2ACF               	goto	l2134
  3871  041D                     u1940:
  3872  041D                     l2198:
  3873  041D  1003               	clrc
  3874  041E  1E97               	btfss	23,5	;volatile
  3875  041F  1403               	setc
  3876  0420  1803               	btfsc	3,0
  3877  0421  2C23               	goto	u1951
  3878  0422  2C26               	goto	u1950
  3879  0423                     u1951:
  3880  0423  0140               	movlb	0	; select bank0
  3881  0424  1697               	bsf	23,5	;volatile
  3882  0425  2C28               	goto	u1964
  3883  0426                     u1950:
  3884  0426  0140               	movlb	0	; select bank0
  3885  0427  1297               	bcf	23,5	;volatile
  3886  0428                     u1964:
  3887  0428                     l2200:
  3888                           
  3889                           ;main.c: 338:             stop_watchflag = 0;
  3890  0428  01D5               	clrf	_stop_watchflag
  3891  0429  01D6               	clrf	_stop_watchflag+1
  3892  042A                     l2202:
  3893                           
  3894                           ;main.c: 339:             _delay((unsigned long)((300)*(1000000/4000.0)));
  3895  042A  3062               	movlw	98
  3896  042B  0140               	movlb	0	; select bank0
  3897  042C  00C9               	movwf	??_main
  3898  042D  3065               	movlw	101
  3899  042E                     u2007:
  3900  042E  0B89               	decfsz	9,f
  3901  042F  2C2E               	goto	u2007
  3902  0430  0BC9               	decfsz	??_main,f
  3903  0431  2C2E               	goto	u2007
  3904  0432  3200               	nop2
  3905  0433  2ACF               	goto	l2134
  3906  0434  3180  2826         	ljmp	start
  3907  0436                     __end_of_main:
  3908                           
  3909                           	psect	text1
  3910  0436                     __ptext1:	
  3911 ;; *************** function _lcd_print *****************
  3912 ;; Defined at:
  3913 ;;		line 101 in file "main.c"
  3914 ;; Parameters:    Size  Location     Type
  3915 ;;  row             1    wreg     unsigned char 
  3916 ;;  coloumn         1    0[BANK0 ] unsigned char 
  3917 ;;  value           2    1[BANK0 ] unsigned int 
  3918 ;;  digits          2    3[BANK0 ] int 
  3919 ;; Auto vars:     Size  Location     Type
  3920 ;;  row             1   15[BANK0 ] unsigned char 
  3921 ;;  temp            2   16[BANK0 ] unsigned int 
  3922 ;;  million         2   13[BANK0 ] unsigned int 
  3923 ;;  thousand        2   11[BANK0 ] unsigned int 
  3924 ;;  hundred         2    9[BANK0 ] unsigned int 
  3925 ;;  tens            2    7[BANK0 ] unsigned int 
  3926 ;;  unit            2    5[BANK0 ] unsigned int 
  3927 ;;  flag            1   18[BANK0 ] unsigned char 
  3928 ;; Return value:  Size  Location     Type
  3929 ;;                  1    wreg      void 
  3930 ;; Registers used:
  3931 ;;		wreg, status,2, status,0, pclath, cstack
  3932 ;; Tracked objects:
  3933 ;;		On entry : 0/0
  3934 ;;		On exit  : 0/0
  3935 ;;		Unchanged: 0/0
  3936 ;; Data sizes:     COMMON   BANK0   BANK1   BANK2   BANK3   BANK4   BANK5   BANK6   BANK7   BANK8   BANK9  BANK10  BANK1
      +1  BANK12  BANK13  BANK14  BANK15  BANK16  BANK17  BANK18  BANK19  BANK20  BANK21  BANK22  BANK23  BANK24  BANK25  BANK2
      +6  BANK27  BANK28  BANK29  BANK30  BANK31  BANK32  BANK33  BANK34  BANK35  BANK36  BANK37  BANK38  BANK39  BANK40  BANK4
      +1  BANK42  BANK43  BANK44  BANK45  BANK46  BANK47  BANK48  BANK49  BANK50
  3937 ;;      Params:         0       5       0       0       0       0       0       0       0       0       0       0       
      +0       0       0       0       0       0       0       0       0       0       0       0       0       0       0       
      +0       0       0       0       0       0       0       0       0       0       0       0       0       0       0       
      +0       0       0       0       0       0       0       0       0       0
  3938 ;;      Locals:         0      14       0       0       0       0       0       0       0       0       0       0       
      +0       0       0       0       0       0       0       0       0       0       0       0       0       0       0       
      +0       0       0       0       0       0       0       0       0       0       0       0       0       0       0       
      +0       0       0       0       0       0       0       0       0       0
  3939 ;;      Temps:          1       0       0       0       0       0       0       0       0       0       0       0       
      +0       0       0       0       0       0       0       0       0       0       0       0       0       0       0       
      +0       0       0       0       0       0       0       0       0       0       0       0       0       0       0       
      +0       0       0       0       0       0       0       0       0       0
  3940 ;;      Totals:         1      19       0       0       0       0       0       0       0       0       0       0       
      +0       0       0       0       0       0       0       0       0       0       0       0       0       0       0       
      +0       0       0       0       0       0       0       0       0       0       0       0       0       0       0       
      +0       0       0       0       0       0       0       0       0       0
  3941 ;;Total ram usage:       20 bytes
  3942 ;; Hardware stack levels used: 1
  3943 ;; Hardware stack levels required when called: 3
  3944 ;; This function calls:
  3945 ;;		___lwdiv
  3946 ;;		___lwmod
  3947 ;;		_cursorxy
  3948 ;;		_lcd_data
  3949 ;; This function is called by:
  3950 ;;		_main
  3951 ;; This function uses a non-reentrant model
  3952 ;;
  3953                           
  3954                           
  3955                           ;psect for function _lcd_print
  3956  0436                     _lcd_print:
  3957                           
  3958                           ;incstack = 0
  3959                           ; Regs used in _lcd_print: [wreg+status,2+status,0+pclath+cstack]
  3960                           ;lcd_print@row stored from wreg
  3961  0436  0140               	movlb	0	; select bank0
  3962  0437  00AF               	movwf	lcd_print@row
  3963  0438                     l1808:
  3964                           
  3965                           ;main.c: 101: void lcd_print(char row, char coloumn, unsigned int value, int digits);mai
      +                          n.c: 102: {;main.c: 103:  unsigned int temp;;main.c: 104:  unsigned int unit;;main.c: 10
      +                          5:  unsigned int tens;;main.c: 106:  unsigned int hundred;;main.c: 107:  unsigned int th
      +                          ousand;;main.c: 108:  unsigned int million;;main.c: 110:  unsigned char flag=0;
  3966  0438  01B2               	clrf	lcd_print@flag
  3967  0439                     l1810:
  3968                           
  3969                           ;main.c: 112:  if(row==0||coloumn==0)
  3970  0439  082F               	movf	lcd_print@row,w
  3971  043A  1903               	btfsc	3,2
  3972  043B  2C3D               	goto	u1201
  3973  043C  2C3E               	goto	u1200
  3974  043D                     u1201:
  3975  043D  2C43               	goto	l1814
  3976  043E                     u1200:
  3977  043E                     l1812:
  3978  043E  0820               	movf	lcd_print@coloumn,w
  3979  043F  1D03               	btfss	3,2
  3980  0440  2C42               	goto	u1211
  3981  0441  2C43               	goto	u1210
  3982  0442                     u1211:
  3983  0442  2C4A               	goto	l1816
  3984  0443                     u1210:
  3985  0443                     l1814:
  3986                           
  3987                           ;main.c: 113:  {;main.c: 114:   cursorxy(1,1);
  3988  0443  01F2               	clrf	cursorxy@y
  3989  0444  0AF2               	incf	cursorxy@y,f
  3990  0445  3001               	movlw	1
  3991  0446  3187  2743  3184   	fcall	_cursorxy
  3992                           
  3993                           ;main.c: 115:  }
  3994  0449  2C52               	goto	l1818
  3995  044A                     l1816:
  3996                           
  3997                           ;main.c: 117:  {;main.c: 118:   cursorxy(row,coloumn);
  3998  044A  0820               	movf	lcd_print@coloumn,w
  3999  044B  00F9               	movwf	??_lcd_print
  4000  044C  0879               	movf	??_lcd_print,w
  4001  044D  00F2               	movwf	cursorxy@y
  4002  044E  082F               	movf	lcd_print@row,w
  4003  044F  3187  2743  3184   	fcall	_cursorxy
  4004  0452                     l1818:
  4005                           
  4006                           ;main.c: 120:  if(digits==5 || flag==1)
  4007  0452  3005               	movlw	5
  4008  0453  0140               	movlb	0	; select bank0
  4009  0454  0623               	xorwf	lcd_print@digits,w
  4010  0455  0424               	iorwf	lcd_print@digits+1,w
  4011  0456  1903               	btfsc	3,2
  4012  0457  2C59               	goto	u1221
  4013  0458  2C5A               	goto	u1220
  4014  0459                     u1221:
  4015  0459  2C5B               	goto	l1822
  4016  045A                     u1220:
  4017  045A  2C74               	goto	l1826
  4018  045B                     l1822:
  4019                           
  4020                           ;main.c: 121:  {;main.c: 122:   million=value/10000+48;
  4021  045B  3010               	movlw	16
  4022  045C  00F1               	movwf	___lwdiv@divisor
  4023  045D  3027               	movlw	39
  4024  045E  00F2               	movwf	___lwdiv@divisor+1
  4025  045F  0822               	movf	lcd_print@value+1,w
  4026  0460  00F4               	movwf	___lwdiv@dividend+1
  4027  0461  0821               	movf	lcd_print@value,w
  4028  0462  00F3               	movwf	___lwdiv@dividend
  4029  0463  3186  2669  3184   	fcall	___lwdiv
  4030  0466  0871               	movf	?___lwdiv,w
  4031  0467  3E30               	addlw	48
  4032  0468  0140               	movlb	0	; select bank0
  4033  0469  00AD               	movwf	lcd_print@million
  4034  046A  3000               	movlw	0
  4035  046B  3D72               	addwfc	?___lwdiv+1,w
  4036  046C  00AE               	movwf	lcd_print@million+1
  4037                           
  4038                           ;main.c: 123:   lcd_data(million);
  4039  046D  082D               	movf	lcd_print@million,w
  4040  046E  3187  27C9  3184   	fcall	_lcd_data
  4041  0471                     l1824:
  4042                           
  4043                           ;main.c: 124:   flag=1;
  4044  0471  0140               	movlb	0	; select bank0
  4045  0472  01B2               	clrf	lcd_print@flag
  4046  0473  0AB2               	incf	lcd_print@flag,f
  4047  0474                     l1826:
  4048                           
  4049                           ;main.c: 126:  if(digits==4 || flag==1)
  4050  0474  3004               	movlw	4
  4051  0475  0623               	xorwf	lcd_print@digits,w
  4052  0476  0424               	iorwf	lcd_print@digits+1,w
  4053  0477  1903               	btfsc	3,2
  4054  0478  2C7A               	goto	u1231
  4055  0479  2C7B               	goto	u1230
  4056  047A                     u1231:
  4057  047A  2C80               	goto	l1830
  4058  047B                     u1230:
  4059  047B                     l1828:
  4060  047B  0332               	decf	lcd_print@flag,w
  4061  047C  1D03               	btfss	3,2
  4062  047D  2C7F               	goto	u1241
  4063  047E  2C80               	goto	u1240
  4064  047F                     u1241:
  4065  047F  2CA9               	goto	l1834
  4066  0480                     u1240:
  4067  0480                     l1830:
  4068                           
  4069                           ;main.c: 127:  {;main.c: 128:   temp = value/1000;
  4070  0480  30E8               	movlw	232
  4071  0481  00F1               	movwf	___lwdiv@divisor
  4072  0482  3003               	movlw	3
  4073  0483  00F2               	movwf	___lwdiv@divisor+1
  4074  0484  0822               	movf	lcd_print@value+1,w
  4075  0485  00F4               	movwf	___lwdiv@dividend+1
  4076  0486  0821               	movf	lcd_print@value,w
  4077  0487  00F3               	movwf	___lwdiv@dividend
  4078  0488  3186  2669  3184   	fcall	___lwdiv
  4079  048B  0872               	movf	?___lwdiv+1,w
  4080  048C  0140               	movlb	0	; select bank0
  4081  048D  00B1               	movwf	lcd_print@temp+1
  4082  048E  0871               	movf	?___lwdiv,w
  4083  048F  00B0               	movwf	lcd_print@temp
  4084                           
  4085                           ;main.c: 129:   thousand = temp%10 + 48;
  4086  0490  300A               	movlw	10
  4087  0491  00F1               	movwf	___lwmod@divisor
  4088  0492  3000               	movlw	0
  4089  0493  00F2               	movwf	___lwmod@divisor+1
  4090  0494  0831               	movf	lcd_print@temp+1,w
  4091  0495  00F4               	movwf	___lwmod@dividend+1
  4092  0496  0830               	movf	lcd_print@temp,w
  4093  0497  00F3               	movwf	___lwmod@dividend
  4094  0498  3186  26DE  3184   	fcall	___lwmod
  4095  049B  0871               	movf	?___lwmod,w
  4096  049C  3E30               	addlw	48
  4097  049D  0140               	movlb	0	; select bank0
  4098  049E  00AB               	movwf	lcd_print@thousand
  4099  049F  3000               	movlw	0
  4100  04A0  3D72               	addwfc	?___lwmod+1,w
  4101  04A1  00AC               	movwf	lcd_print@thousand+1
  4102                           
  4103                           ;main.c: 130:   lcd_data(thousand);
  4104  04A2  082B               	movf	lcd_print@thousand,w
  4105  04A3  3187  27C9  3184   	fcall	_lcd_data
  4106  04A6                     l1832:
  4107                           
  4108                           ;main.c: 131:   flag=1;
  4109  04A6  0140               	movlb	0	; select bank0
  4110  04A7  01B2               	clrf	lcd_print@flag
  4111  04A8  0AB2               	incf	lcd_print@flag,f
  4112  04A9                     l1834:
  4113                           
  4114                           ;main.c: 133:  if(digits==3 || flag==1)
  4115  04A9  3003               	movlw	3
  4116  04AA  0623               	xorwf	lcd_print@digits,w
  4117  04AB  0424               	iorwf	lcd_print@digits+1,w
  4118  04AC  1903               	btfsc	3,2
  4119  04AD  2CAF               	goto	u1251
  4120  04AE  2CB0               	goto	u1250
  4121  04AF                     u1251:
  4122  04AF  2CB5               	goto	l1838
  4123  04B0                     u1250:
  4124  04B0                     l1836:
  4125  04B0  0332               	decf	lcd_print@flag,w
  4126  04B1  1D03               	btfss	3,2
  4127  04B2  2CB4               	goto	u1261
  4128  04B3  2CB5               	goto	u1260
  4129  04B4                     u1261:
  4130  04B4  2CDE               	goto	l1842
  4131  04B5                     u1260:
  4132  04B5                     l1838:
  4133                           
  4134                           ;main.c: 134:  {;main.c: 135:   temp = value/100;
  4135  04B5  3064               	movlw	100
  4136  04B6  00F1               	movwf	___lwdiv@divisor
  4137  04B7  3000               	movlw	0
  4138  04B8  00F2               	movwf	___lwdiv@divisor+1
  4139  04B9  0822               	movf	lcd_print@value+1,w
  4140  04BA  00F4               	movwf	___lwdiv@dividend+1
  4141  04BB  0821               	movf	lcd_print@value,w
  4142  04BC  00F3               	movwf	___lwdiv@dividend
  4143  04BD  3186  2669  3184   	fcall	___lwdiv
  4144  04C0  0872               	movf	?___lwdiv+1,w
  4145  04C1  0140               	movlb	0	; select bank0
  4146  04C2  00B1               	movwf	lcd_print@temp+1
  4147  04C3  0871               	movf	?___lwdiv,w
  4148  04C4  00B0               	movwf	lcd_print@temp
  4149                           
  4150                           ;main.c: 136:   hundred = temp%10 + 48;
  4151  04C5  300A               	movlw	10
  4152  04C6  00F1               	movwf	___lwmod@divisor
  4153  04C7  3000               	movlw	0
  4154  04C8  00F2               	movwf	___lwmod@divisor+1
  4155  04C9  0831               	movf	lcd_print@temp+1,w
  4156  04CA  00F4               	movwf	___lwmod@dividend+1
  4157  04CB  0830               	movf	lcd_print@temp,w
  4158  04CC  00F3               	movwf	___lwmod@dividend
  4159  04CD  3186  26DE  3184   	fcall	___lwmod
  4160  04D0  0871               	movf	?___lwmod,w
  4161  04D1  3E30               	addlw	48
  4162  04D2  0140               	movlb	0	; select bank0
  4163  04D3  00A9               	movwf	lcd_print@hundred
  4164  04D4  3000               	movlw	0
  4165  04D5  3D72               	addwfc	?___lwmod+1,w
  4166  04D6  00AA               	movwf	lcd_print@hundred+1
  4167                           
  4168                           ;main.c: 137:   lcd_data(hundred);
  4169  04D7  0829               	movf	lcd_print@hundred,w
  4170  04D8  3187  27C9  3184   	fcall	_lcd_data
  4171  04DB                     l1840:
  4172                           
  4173                           ;main.c: 138:   flag=1;
  4174  04DB  0140               	movlb	0	; select bank0
  4175  04DC  01B2               	clrf	lcd_print@flag
  4176  04DD  0AB2               	incf	lcd_print@flag,f
  4177  04DE                     l1842:
  4178                           
  4179                           ;main.c: 140:  if(digits==2 || flag==1)
  4180  04DE  3002               	movlw	2
  4181  04DF  0623               	xorwf	lcd_print@digits,w
  4182  04E0  0424               	iorwf	lcd_print@digits+1,w
  4183  04E1  1903               	btfsc	3,2
  4184  04E2  2CE4               	goto	u1271
  4185  04E3  2CE5               	goto	u1270
  4186  04E4                     u1271:
  4187  04E4  2CEA               	goto	l1846
  4188  04E5                     u1270:
  4189  04E5                     l1844:
  4190  04E5  0332               	decf	lcd_print@flag,w
  4191  04E6  1D03               	btfss	3,2
  4192  04E7  2CE9               	goto	u1281
  4193  04E8  2CEA               	goto	u1280
  4194  04E9                     u1281:
  4195  04E9  2D13               	goto	l1850
  4196  04EA                     u1280:
  4197  04EA                     l1846:
  4198                           
  4199                           ;main.c: 141:  {;main.c: 142:   temp = value/10;
  4200  04EA  300A               	movlw	10
  4201  04EB  00F1               	movwf	___lwdiv@divisor
  4202  04EC  3000               	movlw	0
  4203  04ED  00F2               	movwf	___lwdiv@divisor+1
  4204  04EE  0822               	movf	lcd_print@value+1,w
  4205  04EF  00F4               	movwf	___lwdiv@dividend+1
  4206  04F0  0821               	movf	lcd_print@value,w
  4207  04F1  00F3               	movwf	___lwdiv@dividend
  4208  04F2  3186  2669  3184   	fcall	___lwdiv
  4209  04F5  0872               	movf	?___lwdiv+1,w
  4210  04F6  0140               	movlb	0	; select bank0
  4211  04F7  00B1               	movwf	lcd_print@temp+1
  4212  04F8  0871               	movf	?___lwdiv,w
  4213  04F9  00B0               	movwf	lcd_print@temp
  4214                           
  4215                           ;main.c: 143:   tens = temp%10 + 48;
  4216  04FA  300A               	movlw	10
  4217  04FB  00F1               	movwf	___lwmod@divisor
  4218  04FC  3000               	movlw	0
  4219  04FD  00F2               	movwf	___lwmod@divisor+1
  4220  04FE  0831               	movf	lcd_print@temp+1,w
  4221  04FF  00F4               	movwf	___lwmod@dividend+1
  4222  0500  0830               	movf	lcd_print@temp,w
  4223  0501  00F3               	movwf	___lwmod@dividend
  4224  0502  3186  26DE  3184   	fcall	___lwmod
  4225  0505  0871               	movf	?___lwmod,w
  4226  0506  3E30               	addlw	48
  4227  0507  0140               	movlb	0	; select bank0
  4228  0508  00A7               	movwf	lcd_print@tens
  4229  0509  3000               	movlw	0
  4230  050A  3D72               	addwfc	?___lwmod+1,w
  4231  050B  00A8               	movwf	lcd_print@tens+1
  4232                           
  4233                           ;main.c: 144:   lcd_data(tens);
  4234  050C  0827               	movf	lcd_print@tens,w
  4235  050D  3187  27C9  3184   	fcall	_lcd_data
  4236  0510                     l1848:
  4237                           
  4238                           ;main.c: 145:   flag=1;
  4239  0510  0140               	movlb	0	; select bank0
  4240  0511  01B2               	clrf	lcd_print@flag
  4241  0512  0AB2               	incf	lcd_print@flag,f
  4242  0513                     l1850:
  4243                           
  4244                           ;main.c: 147:  if(digits==1 || flag==1)
  4245  0513  0323               	decf	lcd_print@digits,w
  4246  0514  0424               	iorwf	lcd_print@digits+1,w
  4247  0515  1903               	btfsc	3,2
  4248  0516  2D18               	goto	u1291
  4249  0517  2D19               	goto	u1290
  4250  0518                     u1291:
  4251  0518  2D1E               	goto	l1854
  4252  0519                     u1290:
  4253  0519                     l1852:
  4254  0519  0332               	decf	lcd_print@flag,w
  4255  051A  1D03               	btfss	3,2
  4256  051B  2D1D               	goto	u1301
  4257  051C  2D1E               	goto	u1300
  4258  051D                     u1301:
  4259  051D  2D34               	goto	l1856
  4260  051E                     u1300:
  4261  051E                     l1854:
  4262                           
  4263                           ;main.c: 148:  {;main.c: 149:   unit = value%10 + 48;
  4264  051E  300A               	movlw	10
  4265  051F  00F1               	movwf	___lwmod@divisor
  4266  0520  3000               	movlw	0
  4267  0521  00F2               	movwf	___lwmod@divisor+1
  4268  0522  0822               	movf	lcd_print@value+1,w
  4269  0523  00F4               	movwf	___lwmod@dividend+1
  4270  0524  0821               	movf	lcd_print@value,w
  4271  0525  00F3               	movwf	___lwmod@dividend
  4272  0526  3186  26DE  3184   	fcall	___lwmod
  4273  0529  0871               	movf	?___lwmod,w
  4274  052A  3E30               	addlw	48
  4275  052B  0140               	movlb	0	; select bank0
  4276  052C  00A5               	movwf	lcd_print@unit
  4277  052D  3000               	movlw	0
  4278  052E  3D72               	addwfc	?___lwmod+1,w
  4279  052F  00A6               	movwf	lcd_print@unit+1
  4280                           
  4281                           ;main.c: 150:   lcd_data(unit);
  4282  0530  0825               	movf	lcd_print@unit,w
  4283  0531  3187  27C9  3184   	fcall	_lcd_data
  4284  0534                     l1856:
  4285                           
  4286                           ;main.c: 152:  if(digits>5)
  4287  0534  0140               	movlb	0	; select bank0
  4288  0535  0824               	movf	lcd_print@digits+1,w
  4289  0536  3A80               	xorlw	128
  4290  0537  00F9               	movwf	??_lcd_print
  4291  0538  3080               	movlw	128
  4292  0539  0279               	subwf	??_lcd_print,w
  4293  053A  1D03               	skipz
  4294  053B  2D3E               	goto	u1315
  4295  053C  3006               	movlw	6
  4296  053D  0223               	subwf	lcd_print@digits,w
  4297  053E                     u1315:
  4298  053E  1C03               	skipc
  4299  053F  2D41               	goto	u1311
  4300  0540  2D42               	goto	u1310
  4301  0541                     u1311:
  4302  0541  2D46               	goto	l197
  4303  0542                     u1310:
  4304  0542                     l1858:
  4305                           
  4306                           ;main.c: 153:  {;main.c: 154:   lcd_data('e');
  4307  0542  3065               	movlw	101
  4308  0543  3187  27C9  3184   	fcall	_lcd_data
  4309  0546                     l197:
  4310  0546  0008               	return
  4311  0547                     __end_of_lcd_print:
  4312                           
  4313                           	psect	text2
  4314  06DE                     __ptext2:	
  4315 ;; *************** function ___lwmod *****************
  4316 ;; Defined at:
  4317 ;;		line 5 in file "D:\Study\Microchip\xc8\v2.32\pic\sources\c99\common\lwmod.c"
  4318 ;; Parameters:    Size  Location     Type
  4319 ;;  divisor         2    1[COMMON] unsigned int 
  4320 ;;  dividend        2    3[COMMON] unsigned int 
  4321 ;; Auto vars:     Size  Location     Type
  4322 ;;  counter         1    6[COMMON] unsigned char 
  4323 ;; Return value:  Size  Location     Type
  4324 ;;                  2    1[COMMON] unsigned int 
  4325 ;; Registers used:
  4326 ;;		wreg, status,2, status,0
  4327 ;; Tracked objects:
  4328 ;;		On entry : 0/0
  4329 ;;		On exit  : 0/0
  4330 ;;		Unchanged: 0/0
  4331 ;; Data sizes:     COMMON   BANK0   BANK1   BANK2   BANK3   BANK4   BANK5   BANK6   BANK7   BANK8   BANK9  BANK10  BANK1
      +1  BANK12  BANK13  BANK14  BANK15  BANK16  BANK17  BANK18  BANK19  BANK20  BANK21  BANK22  BANK23  BANK24  BANK25  BANK2
      +6  BANK27  BANK28  BANK29  BANK30  BANK31  BANK32  BANK33  BANK34  BANK35  BANK36  BANK37  BANK38  BANK39  BANK40  BANK4
      +1  BANK42  BANK43  BANK44  BANK45  BANK46  BANK47  BANK48  BANK49  BANK50
  4332 ;;      Params:         4       0       0       0       0       0       0       0       0       0       0       0       
      +0       0       0       0       0       0       0       0       0       0       0       0       0       0       0       
      +0       0       0       0       0       0       0       0       0       0       0       0       0       0       0       
      +0       0       0       0       0       0       0       0       0       0
  4333 ;;      Locals:         1       0       0       0       0       0       0       0       0       0       0       0       
      +0       0       0       0       0       0       0       0       0       0       0       0       0       0       0       
      +0       0       0       0       0       0       0       0       0       0       0       0       0       0       0       
      +0       0       0       0       0       0       0       0       0       0
  4334 ;;      Temps:          1       0       0       0       0       0       0       0       0       0       0       0       
      +0       0       0       0       0       0       0       0       0       0       0       0       0       0       0       
      +0       0       0       0       0       0       0       0       0       0       0       0       0       0       0       
      +0       0       0       0       0       0       0       0       0       0
  4335 ;;      Totals:         6       0       0       0       0       0       0       0       0       0       0       0       
      +0       0       0       0       0       0       0       0       0       0       0       0       0       0       0       
      +0       0       0       0       0       0       0       0       0       0       0       0       0       0       0       
      +0       0       0       0       0       0       0       0       0       0
  4336 ;;Total ram usage:        6 bytes
  4337 ;; Hardware stack levels used: 1
  4338 ;; Hardware stack levels required when called: 1
  4339 ;; This function calls:
  4340 ;;		Nothing
  4341 ;; This function is called by:
  4342 ;;		_lcd_print
  4343 ;; This function uses a non-reentrant model
  4344 ;;
  4345                           
  4346                           
  4347                           ;psect for function ___lwmod
  4348  06DE                     ___lwmod:
  4349  06DE                     l1746:	
  4350                           ;incstack = 0
  4351                           ; Regs used in ___lwmod: [wreg+status,2+status,0]
  4352                           
  4353  06DE  0871               	movf	___lwmod@divisor,w
  4354  06DF  0472               	iorwf	___lwmod@divisor+1,w
  4355  06E0  1903               	btfsc	3,2
  4356  06E1  2EE3               	goto	u1111
  4357  06E2  2EE4               	goto	u1110
  4358  06E3                     u1111:
  4359  06E3  2F0D               	goto	l1764
  4360  06E4                     u1110:
  4361  06E4                     l1748:
  4362  06E4  01F6               	clrf	___lwmod@counter
  4363  06E5  0AF6               	incf	___lwmod@counter,f
  4364  06E6  2EF0               	goto	l1754
  4365  06E7                     l1750:
  4366  06E7  3001               	movlw	1
  4367  06E8                     u1125:
  4368  06E8  35F1               	lslf	___lwmod@divisor,f
  4369  06E9  0DF2               	rlf	___lwmod@divisor+1,f
  4370  06EA  0B89               	decfsz	9,f
  4371  06EB  2EE8               	goto	u1125
  4372  06EC                     l1752:
  4373  06EC  3001               	movlw	1
  4374  06ED  00F5               	movwf	??___lwmod
  4375  06EE  0875               	movf	??___lwmod,w
  4376  06EF  07F6               	addwf	___lwmod@counter,f
  4377  06F0                     l1754:
  4378  06F0  1FF2               	btfss	___lwmod@divisor+1,7
  4379  06F1  2EF3               	goto	u1131
  4380  06F2  2EF4               	goto	u1130
  4381  06F3                     u1131:
  4382  06F3  2EE7               	goto	l1750
  4383  06F4                     u1130:
  4384  06F4                     l1756:
  4385  06F4  0872               	movf	___lwmod@divisor+1,w
  4386  06F5  0274               	subwf	___lwmod@dividend+1,w
  4387  06F6  1D03               	skipz
  4388  06F7  2EFA               	goto	u1145
  4389  06F8  0871               	movf	___lwmod@divisor,w
  4390  06F9  0273               	subwf	___lwmod@dividend,w
  4391  06FA                     u1145:
  4392  06FA  1C03               	skipc
  4393  06FB  2EFD               	goto	u1141
  4394  06FC  2EFE               	goto	u1140
  4395  06FD                     u1141:
  4396  06FD  2F02               	goto	l1760
  4397  06FE                     u1140:
  4398  06FE                     l1758:
  4399  06FE  0871               	movf	___lwmod@divisor,w
  4400  06FF  02F3               	subwf	___lwmod@dividend,f
  4401  0700  0872               	movf	___lwmod@divisor+1,w
  4402  0701  3BF4               	subwfb	___lwmod@dividend+1,f
  4403  0702                     l1760:
  4404  0702  3001               	movlw	1
  4405  0703                     u1155:
  4406  0703  36F2               	lsrf	___lwmod@divisor+1,f
  4407  0704  0CF1               	rrf	___lwmod@divisor,f
  4408  0705  0B89               	decfsz	9,f
  4409  0706  2F03               	goto	u1155
  4410  0707                     l1762:
  4411  0707  3001               	movlw	1
  4412  0708  02F6               	subwf	___lwmod@counter,f
  4413  0709  1D03               	btfss	3,2
  4414  070A  2F0C               	goto	u1161
  4415  070B  2F0D               	goto	u1160
  4416  070C                     u1161:
  4417  070C  2EF4               	goto	l1756
  4418  070D                     u1160:
  4419  070D                     l1764:
  4420  070D  0874               	movf	___lwmod@dividend+1,w
  4421  070E  00F2               	movwf	?___lwmod+1
  4422  070F  0873               	movf	___lwmod@dividend,w
  4423  0710  00F1               	movwf	?___lwmod
  4424  0711                     l834:
  4425  0711  0008               	return
  4426  0712                     __end_of___lwmod:
  4427                           
  4428                           	psect	text3
  4429  0669                     __ptext3:	
  4430 ;; *************** function ___lwdiv *****************
  4431 ;; Defined at:
  4432 ;;		line 5 in file "D:\Study\Microchip\xc8\v2.32\pic\sources\c99\common\lwdiv.c"
  4433 ;; Parameters:    Size  Location     Type
  4434 ;;  divisor         2    1[COMMON] unsigned int 
  4435 ;;  dividend        2    3[COMMON] unsigned int 
  4436 ;; Auto vars:     Size  Location     Type
  4437 ;;  quotient        2    6[COMMON] unsigned int 
  4438 ;;  counter         1    8[COMMON] unsigned char 
  4439 ;; Return value:  Size  Location     Type
  4440 ;;                  2    1[COMMON] unsigned int 
  4441 ;; Registers used:
  4442 ;;		wreg, status,2, status,0
  4443 ;; Tracked objects:
  4444 ;;		On entry : 0/0
  4445 ;;		On exit  : 0/0
  4446 ;;		Unchanged: 0/0
  4447 ;; Data sizes:     COMMON   BANK0   BANK1   BANK2   BANK3   BANK4   BANK5   BANK6   BANK7   BANK8   BANK9  BANK10  BANK1
      +1  BANK12  BANK13  BANK14  BANK15  BANK16  BANK17  BANK18  BANK19  BANK20  BANK21  BANK22  BANK23  BANK24  BANK25  BANK2
      +6  BANK27  BANK28  BANK29  BANK30  BANK31  BANK32  BANK33  BANK34  BANK35  BANK36  BANK37  BANK38  BANK39  BANK40  BANK4
      +1  BANK42  BANK43  BANK44  BANK45  BANK46  BANK47  BANK48  BANK49  BANK50
  4448 ;;      Params:         4       0       0       0       0       0       0       0       0       0       0       0       
      +0       0       0       0       0       0       0       0       0       0       0       0       0       0       0       
      +0       0       0       0       0       0       0       0       0       0       0       0       0       0       0       
      +0       0       0       0       0       0       0       0       0       0
  4449 ;;      Locals:         3       0       0       0       0       0       0       0       0       0       0       0       
      +0       0       0       0       0       0       0       0       0       0       0       0       0       0       0       
      +0       0       0       0       0       0       0       0       0       0       0       0       0       0       0       
      +0       0       0       0       0       0       0       0       0       0
  4450 ;;      Temps:          1       0       0       0       0       0       0       0       0       0       0       0       
      +0       0       0       0       0       0       0       0       0       0       0       0       0       0       0       
      +0       0       0       0       0       0       0       0       0       0       0       0       0       0       0       
      +0       0       0       0       0       0       0       0       0       0
  4451 ;;      Totals:         8       0       0       0       0       0       0       0       0       0       0       0       
      +0       0       0       0       0       0       0       0       0       0       0       0       0       0       0       
      +0       0       0       0       0       0       0       0       0       0       0       0       0       0       0       
      +0       0       0       0       0       0       0       0       0       0
  4452 ;;Total ram usage:        8 bytes
  4453 ;; Hardware stack levels used: 1
  4454 ;; Hardware stack levels required when called: 1
  4455 ;; This function calls:
  4456 ;;		Nothing
  4457 ;; This function is called by:
  4458 ;;		_lcd_print
  4459 ;; This function uses a non-reentrant model
  4460 ;;
  4461                           
  4462                           
  4463                           ;psect for function ___lwdiv
  4464  0669                     ___lwdiv:
  4465  0669                     l1720:	
  4466                           ;incstack = 0
  4467                           ; Regs used in ___lwdiv: [wreg+status,2+status,0]
  4468                           
  4469  0669  01F6               	clrf	___lwdiv@quotient
  4470  066A  01F7               	clrf	___lwdiv@quotient+1
  4471  066B                     l1722:
  4472  066B  0871               	movf	___lwdiv@divisor,w
  4473  066C  0472               	iorwf	___lwdiv@divisor+1,w
  4474  066D  1903               	btfsc	3,2
  4475  066E  2E70               	goto	u1041
  4476  066F  2E71               	goto	u1040
  4477  0670                     u1041:
  4478  0670  2EA0               	goto	l1742
  4479  0671                     u1040:
  4480  0671                     l1724:
  4481  0671  01F8               	clrf	___lwdiv@counter
  4482  0672  0AF8               	incf	___lwdiv@counter,f
  4483  0673  2E7D               	goto	l1730
  4484  0674                     l1726:
  4485  0674  3001               	movlw	1
  4486  0675                     u1055:
  4487  0675  35F1               	lslf	___lwdiv@divisor,f
  4488  0676  0DF2               	rlf	___lwdiv@divisor+1,f
  4489  0677  0B89               	decfsz	9,f
  4490  0678  2E75               	goto	u1055
  4491  0679                     l1728:
  4492  0679  3001               	movlw	1
  4493  067A  00F5               	movwf	??___lwdiv
  4494  067B  0875               	movf	??___lwdiv,w
  4495  067C  07F8               	addwf	___lwdiv@counter,f
  4496  067D                     l1730:
  4497  067D  1FF2               	btfss	___lwdiv@divisor+1,7
  4498  067E  2E80               	goto	u1061
  4499  067F  2E81               	goto	u1060
  4500  0680                     u1061:
  4501  0680  2E74               	goto	l1726
  4502  0681                     u1060:
  4503  0681                     l1732:
  4504  0681  3001               	movlw	1
  4505  0682                     u1075:
  4506  0682  35F6               	lslf	___lwdiv@quotient,f
  4507  0683  0DF7               	rlf	___lwdiv@quotient+1,f
  4508  0684  0B89               	decfsz	9,f
  4509  0685  2E82               	goto	u1075
  4510  0686  0872               	movf	___lwdiv@divisor+1,w
  4511  0687  0274               	subwf	___lwdiv@dividend+1,w
  4512  0688  1D03               	skipz
  4513  0689  2E8C               	goto	u1085
  4514  068A  0871               	movf	___lwdiv@divisor,w
  4515  068B  0273               	subwf	___lwdiv@dividend,w
  4516  068C                     u1085:
  4517  068C  1C03               	skipc
  4518  068D  2E8F               	goto	u1081
  4519  068E  2E90               	goto	u1080
  4520  068F                     u1081:
  4521  068F  2E95               	goto	l1738
  4522  0690                     u1080:
  4523  0690                     l1734:
  4524  0690  0871               	movf	___lwdiv@divisor,w
  4525  0691  02F3               	subwf	___lwdiv@dividend,f
  4526  0692  0872               	movf	___lwdiv@divisor+1,w
  4527  0693  3BF4               	subwfb	___lwdiv@dividend+1,f
  4528  0694                     l1736:
  4529  0694  1476               	bsf	___lwdiv@quotient,0
  4530  0695                     l1738:
  4531  0695  3001               	movlw	1
  4532  0696                     u1095:
  4533  0696  36F2               	lsrf	___lwdiv@divisor+1,f
  4534  0697  0CF1               	rrf	___lwdiv@divisor,f
  4535  0698  0B89               	decfsz	9,f
  4536  0699  2E96               	goto	u1095
  4537  069A                     l1740:
  4538  069A  3001               	movlw	1
  4539  069B  02F8               	subwf	___lwdiv@counter,f
  4540  069C  1D03               	btfss	3,2
  4541  069D  2E9F               	goto	u1101
  4542  069E  2EA0               	goto	u1100
  4543  069F                     u1101:
  4544  069F  2E81               	goto	l1732
  4545  06A0                     u1100:
  4546  06A0                     l1742:
  4547  06A0  0877               	movf	___lwdiv@quotient+1,w
  4548  06A1  00F2               	movwf	?___lwdiv+1
  4549  06A2  0876               	movf	___lwdiv@quotient,w
  4550  06A3  00F1               	movwf	?___lwdiv
  4551  06A4                     l824:
  4552  06A4  0008               	return
  4553  06A5                     __end_of___lwdiv:
  4554                           
  4555                           	psect	text4
  4556  0792                     __ptext4:	
  4557 ;; *************** function _lcd_out *****************
  4558 ;; Defined at:
  4559 ;;		line 158 in file "main.c"
  4560 ;; Parameters:    Size  Location     Type
  4561 ;;  x               1    wreg     unsigned char 
  4562 ;;  y               1    4[COMMON] unsigned char 
  4563 ;;  str             2    5[COMMON] PTR unsigned char 
  4564 ;;		 -> STR_7(9), STR_6(5), STR_5(5), STR_4(5), 
  4565 ;;		 -> STR_3(8), STR_2(8), STR_1(5), 
  4566 ;; Auto vars:     Size  Location     Type
  4567 ;;  x               1    8[COMMON] unsigned char 
  4568 ;; Return value:  Size  Location     Type
  4569 ;;                  1    wreg      void 
  4570 ;; Registers used:
  4571 ;;		wreg, fsr0l, fsr0h, status,2, status,0, pclath, cstack
  4572 ;; Tracked objects:
  4573 ;;		On entry : 0/0
  4574 ;;		On exit  : 0/0
  4575 ;;		Unchanged: 0/0
  4576 ;; Data sizes:     COMMON   BANK0   BANK1   BANK2   BANK3   BANK4   BANK5   BANK6   BANK7   BANK8   BANK9  BANK10  BANK1
      +1  BANK12  BANK13  BANK14  BANK15  BANK16  BANK17  BANK18  BANK19  BANK20  BANK21  BANK22  BANK23  BANK24  BANK25  BANK2
      +6  BANK27  BANK28  BANK29  BANK30  BANK31  BANK32  BANK33  BANK34  BANK35  BANK36  BANK37  BANK38  BANK39  BANK40  BANK4
      +1  BANK42  BANK43  BANK44  BANK45  BANK46  BANK47  BANK48  BANK49  BANK50
  4577 ;;      Params:         3       0       0       0       0       0       0       0       0       0       0       0       
      +0       0       0       0       0       0       0       0       0       0       0       0       0       0       0       
      +0       0       0       0       0       0       0       0       0       0       0       0       0       0       0       
      +0       0       0       0       0       0       0       0       0       0
  4578 ;;      Locals:         1       0       0       0       0       0       0       0       0       0       0       0       
      +0       0       0       0       0       0       0       0       0       0       0       0       0       0       0       
      +0       0       0       0       0       0       0       0       0       0       0       0       0       0       0       
      +0       0       0       0       0       0       0       0       0       0
  4579 ;;      Temps:          1       0       0       0       0       0       0       0       0       0       0       0       
      +0       0       0       0       0       0       0       0       0       0       0       0       0       0       0       
      +0       0       0       0       0       0       0       0       0       0       0       0       0       0       0       
      +0       0       0       0       0       0       0       0       0       0
  4580 ;;      Totals:         5       0       0       0       0       0       0       0       0       0       0       0       
      +0       0       0       0       0       0       0       0       0       0       0       0       0       0       0       
      +0       0       0       0       0       0       0       0       0       0       0       0       0       0       0       
      +0       0       0       0       0       0       0       0       0       0
  4581 ;;Total ram usage:        5 bytes
  4582 ;; Hardware stack levels used: 1
  4583 ;; Hardware stack levels required when called: 3
  4584 ;; This function calls:
  4585 ;;		_cursorxy
  4586 ;;		_lcd_data
  4587 ;; This function is called by:
  4588 ;;		_main
  4589 ;; This function uses a non-reentrant model
  4590 ;;
  4591                           
  4592                           
  4593                           ;psect for function _lcd_out
  4594  0792                     _lcd_out:
  4595                           
  4596                           ;incstack = 0
  4597                           ; Regs used in _lcd_out: [wreg-fsr0h+status,2+status,0+pclath+cstack]
  4598                           ;lcd_out@x stored from wreg
  4599  0792  00F8               	movwf	lcd_out@x
  4600  0793                     l1860:
  4601                           
  4602                           ;main.c: 158: void lcd_out(char x, char y, char *str);main.c: 159: {;main.c: 160:  curso
      +                          rxy(x,y);
  4603  0793  0874               	movf	lcd_out@y,w
  4604  0794  00F7               	movwf	??_lcd_out
  4605  0795  0877               	movf	??_lcd_out,w
  4606  0796  00F2               	movwf	cursorxy@y
  4607  0797  0878               	movf	lcd_out@x,w
  4608  0798  3187  2743  3187   	fcall	_cursorxy
  4609                           
  4610                           ;main.c: 161:  while(*str)
  4611  079B  2FA8               	goto	l1866
  4612  079C                     l1862:
  4613                           
  4614                           ;main.c: 162:  {;main.c: 163:   lcd_data(*str);
  4615  079C  0875               	movf	lcd_out@str,w
  4616  079D  0084               	movwf	4
  4617  079E  0876               	movf	lcd_out@str+1,w
  4618  079F  0085               	movwf	5
  4619  07A0  0800               	movf	0,w	;code access
  4620  07A1  3187  27C9  3187   	fcall	_lcd_data
  4621  07A4                     l1864:
  4622                           
  4623                           ;main.c: 164:   str++;
  4624  07A4  3001               	movlw	1
  4625  07A5  07F5               	addwf	lcd_out@str,f
  4626  07A6  3000               	movlw	0
  4627  07A7  3DF6               	addwfc	lcd_out@str+1,f
  4628  07A8                     l1866:
  4629                           
  4630                           ;main.c: 161:  while(*str)
  4631  07A8  0875               	movf	lcd_out@str,w
  4632  07A9  0084               	movwf	4
  4633  07AA  0876               	movf	lcd_out@str+1,w
  4634  07AB  0085               	movwf	5
  4635  07AC  0012               	moviw fsr0++
  4636  07AD  1D03               	btfss	3,2
  4637  07AE  2FB0               	goto	u1321
  4638  07AF  2FB1               	goto	u1320
  4639  07B0                     u1321:
  4640  07B0  2F9C               	goto	l1862
  4641  07B1                     u1320:
  4642  07B1                     l203:
  4643  07B1  0008               	return
  4644  07B2                     __end_of_lcd_out:
  4645                           
  4646                           	psect	text5
  4647  07C9                     __ptext5:	
  4648 ;; *************** function _lcd_data *****************
  4649 ;; Defined at:
  4650 ;;		line 67 in file "main.c"
  4651 ;; Parameters:    Size  Location     Type
  4652 ;;  dat             1    wreg     unsigned char 
  4653 ;; Auto vars:     Size  Location     Type
  4654 ;;  dat             1    1[COMMON] unsigned char 
  4655 ;; Return value:  Size  Location     Type
  4656 ;;                  1    wreg      void 
  4657 ;; Registers used:
  4658 ;;		wreg
  4659 ;; Tracked objects:
  4660 ;;		On entry : 0/0
  4661 ;;		On exit  : 0/0
  4662 ;;		Unchanged: 0/0
  4663 ;; Data sizes:     COMMON   BANK0   BANK1   BANK2   BANK3   BANK4   BANK5   BANK6   BANK7   BANK8   BANK9  BANK10  BANK1
      +1  BANK12  BANK13  BANK14  BANK15  BANK16  BANK17  BANK18  BANK19  BANK20  BANK21  BANK22  BANK23  BANK24  BANK25  BANK2
      +6  BANK27  BANK28  BANK29  BANK30  BANK31  BANK32  BANK33  BANK34  BANK35  BANK36  BANK37  BANK38  BANK39  BANK40  BANK4
      +1  BANK42  BANK43  BANK44  BANK45  BANK46  BANK47  BANK48  BANK49  BANK50
  4664 ;;      Params:         0       0       0       0       0       0       0       0       0       0       0       0       
      +0       0       0       0       0       0       0       0       0       0       0       0       0       0       0       
      +0       0       0       0       0       0       0       0       0       0       0       0       0       0       0       
      +0       0       0       0       0       0       0       0       0       0
  4665 ;;      Locals:         1       0       0       0       0       0       0       0       0       0       0       0       
      +0       0       0       0       0       0       0       0       0       0       0       0       0       0       0       
      +0       0       0       0       0       0       0       0       0       0       0       0       0       0       0       
      +0       0       0       0       0       0       0       0       0       0
  4666 ;;      Temps:          0       0       0       0       0       0       0       0       0       0       0       0       
      +0       0       0       0       0       0       0       0       0       0       0       0       0       0       0       
      +0       0       0       0       0       0       0       0       0       0       0       0       0       0       0       
      +0       0       0       0       0       0       0       0       0       0
  4667 ;;      Totals:         1       0       0       0       0       0       0       0       0       0       0       0       
      +0       0       0       0       0       0       0       0       0       0       0       0       0       0       0       
      +0       0       0       0       0       0       0       0       0       0       0       0       0       0       0       
      +0       0       0       0       0       0       0       0       0       0
  4668 ;;Total ram usage:        1 bytes
  4669 ;; Hardware stack levels used: 1
  4670 ;; Hardware stack levels required when called: 1
  4671 ;; This function calls:
  4672 ;;		Nothing
  4673 ;; This function is called by:
  4674 ;;		_lcd_print
  4675 ;;		_lcd_out
  4676 ;;		_main
  4677 ;; This function uses a non-reentrant model
  4678 ;;
  4679                           
  4680                           
  4681                           ;psect for function _lcd_data
  4682  07C9                     _lcd_data:
  4683                           
  4684                           ;incstack = 0
  4685                           ; Regs used in _lcd_data: [wreg]
  4686                           ;lcd_data@dat stored from wreg
  4687  07C9  00F1               	movwf	lcd_data@dat
  4688  07CA                     l155:	
  4689                           ;main.c: 67: void lcd_data(unsigned char dat);main.c: 68: {;main.c: 69:     do { LATEbit
      +                          s.LATE0 = 1; } while(0);
  4690                           
  4691  07CA  0140               	movlb	0	; select bank0
  4692  07CB  141A               	bsf	26,0	;volatile
  4693  07CC                     l1700:
  4694                           
  4695                           ;main.c: 70:  LATD = dat;
  4696  07CC  0871               	movf	lcd_data@dat,w
  4697  07CD  0099               	movwf	25	;volatile
  4698  07CE                     l1702:
  4699  07CE  149A               	bsf	26,1	;volatile
  4700  07CF                     l158:
  4701                           
  4702                           ;main.c: 72:     _delay((unsigned long)((2)*(1000000/4000.0)));
  4703  07CF  30A6               	movlw	166
  4704  07D0                     u2017:
  4705  07D0  0B89               	decfsz	9,f
  4706  07D1  2FD0               	goto	u2017
  4707  07D2  3200               	nop2
  4708  07D3                     l1704:
  4709  07D3  0140               	movlb	0	; select bank0
  4710  07D4  109A               	bcf	26,1	;volatile
  4711  07D5                     l160:
  4712                           
  4713                           ;main.c: 74:     _delay((unsigned long)((2)*(1000000/4000.0)));
  4714  07D5  30A6               	movlw	166
  4715  07D6                     u2027:
  4716  07D6  0B89               	decfsz	9,f
  4717  07D7  2FD6               	goto	u2027
  4718  07D8  3200               	nop2
  4719  07D9                     l161:
  4720  07D9  0008               	return
  4721  07DA                     __end_of_lcd_data:
  4722                           
  4723                           	psect	text6
  4724  0743                     __ptext6:	
  4725 ;; *************** function _cursorxy *****************
  4726 ;; Defined at:
  4727 ;;		line 87 in file "main.c"
  4728 ;; Parameters:    Size  Location     Type
  4729 ;;  x               1    wreg     unsigned char 
  4730 ;;  y               1    2[COMMON] unsigned char 
  4731 ;; Auto vars:     Size  Location     Type
  4732 ;;  x               1    3[COMMON] unsigned char 
  4733 ;; Return value:  Size  Location     Type
  4734 ;;                  1    wreg      void 
  4735 ;; Registers used:
  4736 ;;		wreg, status,2, status,0, pclath, cstack
  4737 ;; Tracked objects:
  4738 ;;		On entry : 0/0
  4739 ;;		On exit  : 0/0
  4740 ;;		Unchanged: 0/0
  4741 ;; Data sizes:     COMMON   BANK0   BANK1   BANK2   BANK3   BANK4   BANK5   BANK6   BANK7   BANK8   BANK9  BANK10  BANK1
      +1  BANK12  BANK13  BANK14  BANK15  BANK16  BANK17  BANK18  BANK19  BANK20  BANK21  BANK22  BANK23  BANK24  BANK25  BANK2
      +6  BANK27  BANK28  BANK29  BANK30  BANK31  BANK32  BANK33  BANK34  BANK35  BANK36  BANK37  BANK38  BANK39  BANK40  BANK4
      +1  BANK42  BANK43  BANK44  BANK45  BANK46  BANK47  BANK48  BANK49  BANK50
  4742 ;;      Params:         1       0       0       0       0       0       0       0       0       0       0       0       
      +0       0       0       0       0       0       0       0       0       0       0       0       0       0       0       
      +0       0       0       0       0       0       0       0       0       0       0       0       0       0       0       
      +0       0       0       0       0       0       0       0       0       0
  4743 ;;      Locals:         1       0       0       0       0       0       0       0       0       0       0       0       
      +0       0       0       0       0       0       0       0       0       0       0       0       0       0       0       
      +0       0       0       0       0       0       0       0       0       0       0       0       0       0       0       
      +0       0       0       0       0       0       0       0       0       0
  4744 ;;      Temps:          0       0       0       0       0       0       0       0       0       0       0       0       
      +0       0       0       0       0       0       0       0       0       0       0       0       0       0       0       
      +0       0       0       0       0       0       0       0       0       0       0       0       0       0       0       
      +0       0       0       0       0       0       0       0       0       0
  4745 ;;      Totals:         2       0       0       0       0       0       0       0       0       0       0       0       
      +0       0       0       0       0       0       0       0       0       0       0       0       0       0       0       
      +0       0       0       0       0       0       0       0       0       0       0       0       0       0       0       
      +0       0       0       0       0       0       0       0       0       0
  4746 ;;Total ram usage:        2 bytes
  4747 ;; Hardware stack levels used: 1
  4748 ;; Hardware stack levels required when called: 2
  4749 ;; This function calls:
  4750 ;;		_lcd_cmd
  4751 ;; This function is called by:
  4752 ;;		_lcd_print
  4753 ;;		_lcd_out
  4754 ;; This function uses a non-reentrant model
  4755 ;;
  4756                           
  4757                           
  4758                           ;psect for function _cursorxy
  4759  0743                     _cursorxy:
  4760                           
  4761                           ;incstack = 0
  4762                           ; Regs used in _cursorxy: [wreg+status,2+status,0+pclath+cstack]
  4763                           ;cursorxy@x stored from wreg
  4764  0743  00F3               	movwf	cursorxy@x
  4765  0744                     l1706:
  4766                           
  4767                           ;main.c: 87: void cursorxy(char x, char y);main.c: 88: {;main.c: 89:  if( ( x < 1 || x >
      +                           2) || (y < 1 || y > 16) )
  4768  0744  0873               	movf	cursorxy@x,w
  4769  0745  1903               	btfsc	3,2
  4770  0746  2F48               	goto	u991
  4771  0747  2F49               	goto	u990
  4772  0748                     u991:
  4773  0748  2F5A               	goto	l169
  4774  0749                     u990:
  4775  0749                     l1708:
  4776  0749  3003               	movlw	3
  4777  074A  0273               	subwf	cursorxy@x,w
  4778  074B  1803               	skipnc
  4779  074C  2F4E               	goto	u1001
  4780  074D  2F4F               	goto	u1000
  4781  074E                     u1001:
  4782  074E  2F5A               	goto	l169
  4783  074F                     u1000:
  4784  074F                     l1710:
  4785  074F  0872               	movf	cursorxy@y,w
  4786  0750  1903               	btfsc	3,2
  4787  0751  2F53               	goto	u1011
  4788  0752  2F54               	goto	u1010
  4789  0753                     u1011:
  4790  0753  2F5A               	goto	l169
  4791  0754                     u1010:
  4792  0754                     l1712:
  4793  0754  3011               	movlw	17
  4794  0755  0272               	subwf	cursorxy@y,w
  4795  0756  1C03               	skipc
  4796  0757  2F59               	goto	u1021
  4797  0758  2F5A               	goto	u1020
  4798  0759                     u1021:
  4799  0759  2F5E               	goto	l1714
  4800  075A                     u1020:
  4801  075A                     l169:
  4802                           
  4803                           ;main.c: 90:  {;main.c: 91:   x = 1;
  4804  075A  01F3               	clrf	cursorxy@x
  4805  075B  0AF3               	incf	cursorxy@x,f
  4806                           
  4807                           ;main.c: 92:   y = 1;
  4808  075C  01F2               	clrf	cursorxy@y
  4809  075D  0AF2               	incf	cursorxy@y,f
  4810  075E                     l1714:
  4811                           
  4812                           ;main.c: 94:  if(x == 1)
  4813  075E  0373               	decf	cursorxy@x,w
  4814  075F  1D03               	btfss	3,2
  4815  0760  2F62               	goto	u1031
  4816  0761  2F63               	goto	u1030
  4817  0762                     u1031:
  4818  0762  2F69               	goto	l1718
  4819  0763                     u1030:
  4820  0763                     l1716:
  4821                           
  4822                           ;main.c: 95:  lcd_cmd(0x7F+y);
  4823  0763  0872               	movf	cursorxy@y,w
  4824  0764  3E7F               	addlw	127
  4825  0765  3187  27DA  3187   	fcall	_lcd_cmd
  4826  0768  2F6E               	goto	l174
  4827  0769                     l1718:
  4828                           
  4829                           ;main.c: 97:  lcd_cmd(0xBF+y);
  4830  0769  0872               	movf	cursorxy@y,w
  4831  076A  3EBF               	addlw	191
  4832  076B  3187  27DA  3187   	fcall	_lcd_cmd
  4833  076E                     l174:
  4834  076E  0008               	return
  4835  076F                     __end_of_cursorxy:
  4836                           
  4837                           	psect	text7
  4838  0712                     __ptext7:	
  4839 ;; *************** function _lcd_init *****************
  4840 ;; Defined at:
  4841 ;;		line 77 in file "main.c"
  4842 ;; Parameters:    Size  Location     Type
  4843 ;;		None
  4844 ;; Auto vars:     Size  Location     Type
  4845 ;;		None
  4846 ;; Return value:  Size  Location     Type
  4847 ;;                  1    wreg      void 
  4848 ;; Registers used:
  4849 ;;		wreg, status,2, status,0, pclath, cstack
  4850 ;; Tracked objects:
  4851 ;;		On entry : 0/0
  4852 ;;		On exit  : 0/0
  4853 ;;		Unchanged: 0/0
  4854 ;; Data sizes:     COMMON   BANK0   BANK1   BANK2   BANK3   BANK4   BANK5   BANK6   BANK7   BANK8   BANK9  BANK10  BANK1
      +1  BANK12  BANK13  BANK14  BANK15  BANK16  BANK17  BANK18  BANK19  BANK20  BANK21  BANK22  BANK23  BANK24  BANK25  BANK2
      +6  BANK27  BANK28  BANK29  BANK30  BANK31  BANK32  BANK33  BANK34  BANK35  BANK36  BANK37  BANK38  BANK39  BANK40  BANK4
      +1  BANK42  BANK43  BANK44  BANK45  BANK46  BANK47  BANK48  BANK49  BANK50
  4855 ;;      Params:         0       0       0       0       0       0       0       0       0       0       0       0       
      +0       0       0       0       0       0       0       0       0       0       0       0       0       0       0       
      +0       0       0       0       0       0       0       0       0       0       0       0       0       0       0       
      +0       0       0       0       0       0       0       0       0       0
  4856 ;;      Locals:         0       0       0       0       0       0       0       0       0       0       0       0       
      +0       0       0       0       0       0       0       0       0       0       0       0       0       0       0       
      +0       0       0       0       0       0       0       0       0       0       0       0       0       0       0       
      +0       0       0       0       0       0       0       0       0       0
  4857 ;;      Temps:          0       0       0       0       0       0       0       0       0       0       0       0       
      +0       0       0       0       0       0       0       0       0       0       0       0       0       0       0       
      +0       0       0       0       0       0       0       0       0       0       0       0       0       0       0       
      +0       0       0       0       0       0       0       0       0       0
  4858 ;;      Totals:         0       0       0       0       0       0       0       0       0       0       0       0       
      +0       0       0       0       0       0       0       0       0       0       0       0       0       0       0       
      +0       0       0       0       0       0       0       0       0       0       0       0       0       0       0       
      +0       0       0       0       0       0       0       0       0       0
  4859 ;;Total ram usage:        0 bytes
  4860 ;; Hardware stack levels used: 1
  4861 ;; Hardware stack levels required when called: 2
  4862 ;; This function calls:
  4863 ;;		_lcd_cmd
  4864 ;; This function is called by:
  4865 ;;		_main
  4866 ;; This function uses a non-reentrant model
  4867 ;;
  4868                           
  4869                           
  4870                           ;psect for function _lcd_init
  4871  0712                     _lcd_init:
  4872  0712                     l1790:	
  4873                           ;incstack = 0
  4874                           ; Regs used in _lcd_init: [wreg+status,2+status,0+pclath+cstack]
  4875                           
  4876                           
  4877                           ;main.c: 79:  lcd_cmd(0x38); _delay((unsigned long)((5)*(1000000/4000.0)));
  4878  0712  3038               	movlw	56
  4879  0713  3187  27DA  3187   	fcall	_lcd_cmd
  4880  0716                     l1792:
  4881  0716  30FA               	movlw	250
  4882  0717                     u2037:
  4883  0717  3200               	nop2
  4884  0718  0B89               	decfsz	9,f
  4885  0719  2F17               	goto	u2037
  4886  071A                     l1794:
  4887                           
  4888                           ;main.c: 80:  lcd_cmd(0x02); _delay((unsigned long)((5)*(1000000/4000.0)));
  4889  071A  3002               	movlw	2
  4890  071B  3187  27DA  3187   	fcall	_lcd_cmd
  4891  071E  30FA               	movlw	250
  4892  071F                     u2047:
  4893  071F  3200               	nop2
  4894  0720  0B89               	decfsz	9,f
  4895  0721  2F1F               	goto	u2047
  4896  0722                     l1796:
  4897                           
  4898                           ;main.c: 81:  lcd_cmd(0x01); _delay((unsigned long)((5)*(1000000/4000.0)));
  4899  0722  3001               	movlw	1
  4900  0723  3187  27DA  3187   	fcall	_lcd_cmd
  4901  0726                     l1798:
  4902  0726  30FA               	movlw	250
  4903  0727                     u2057:
  4904  0727  3200               	nop2
  4905  0728  0B89               	decfsz	9,f
  4906  0729  2F27               	goto	u2057
  4907                           
  4908                           ;main.c: 82:  lcd_cmd(0x0C); _delay((unsigned long)((5)*(1000000/4000.0)));
  4909  072A  300C               	movlw	12
  4910  072B  3187  27DA  3187   	fcall	_lcd_cmd
  4911  072E                     l1800:
  4912  072E  30FA               	movlw	250
  4913  072F                     u2067:
  4914  072F  3200               	nop2
  4915  0730  0B89               	decfsz	9,f
  4916  0731  2F2F               	goto	u2067
  4917  0732                     l1802:
  4918                           
  4919                           ;main.c: 83:  lcd_cmd(0x06); _delay((unsigned long)((5)*(1000000/4000.0)));
  4920  0732  3006               	movlw	6
  4921  0733  3187  27DA  3187   	fcall	_lcd_cmd
  4922  0736  30FA               	movlw	250
  4923  0737                     u2077:
  4924  0737  3200               	nop2
  4925  0738  0B89               	decfsz	9,f
  4926  0739  2F37               	goto	u2077
  4927  073A                     l1804:
  4928                           
  4929                           ;main.c: 84:  lcd_cmd(0x80); _delay((unsigned long)((5)*(1000000/4000.0)));
  4930  073A  3080               	movlw	128
  4931  073B  3187  27DA  3187   	fcall	_lcd_cmd
  4932  073E                     l1806:
  4933  073E  30FA               	movlw	250
  4934  073F                     u2087:
  4935  073F  3200               	nop2
  4936  0740  0B89               	decfsz	9,f
  4937  0741  2F3F               	goto	u2087
  4938  0742                     l164:
  4939  0742  0008               	return
  4940  0743                     __end_of_lcd_init:
  4941                           
  4942                           	psect	text8
  4943  07DA                     __ptext8:	
  4944 ;; *************** function _lcd_cmd *****************
  4945 ;; Defined at:
  4946 ;;		line 56 in file "main.c"
  4947 ;; Parameters:    Size  Location     Type
  4948 ;;  cmd             1    wreg     unsigned char 
  4949 ;; Auto vars:     Size  Location     Type
  4950 ;;  cmd             1    1[COMMON] unsigned char 
  4951 ;; Return value:  Size  Location     Type
  4952 ;;                  1    wreg      void 
  4953 ;; Registers used:
  4954 ;;		wreg
  4955 ;; Tracked objects:
  4956 ;;		On entry : 0/0
  4957 ;;		On exit  : 0/0
  4958 ;;		Unchanged: 0/0
  4959 ;; Data sizes:     COMMON   BANK0   BANK1   BANK2   BANK3   BANK4   BANK5   BANK6   BANK7   BANK8   BANK9  BANK10  BANK1
      +1  BANK12  BANK13  BANK14  BANK15  BANK16  BANK17  BANK18  BANK19  BANK20  BANK21  BANK22  BANK23  BANK24  BANK25  BANK2
      +6  BANK27  BANK28  BANK29  BANK30  BANK31  BANK32  BANK33  BANK34  BANK35  BANK36  BANK37  BANK38  BANK39  BANK40  BANK4
      +1  BANK42  BANK43  BANK44  BANK45  BANK46  BANK47  BANK48  BANK49  BANK50
  4960 ;;      Params:         0       0       0       0       0       0       0       0       0       0       0       0       
      +0       0       0       0       0       0       0       0       0       0       0       0       0       0       0       
      +0       0       0       0       0       0       0       0       0       0       0       0       0       0       0       
      +0       0       0       0       0       0       0       0       0       0
  4961 ;;      Locals:         1       0       0       0       0       0       0       0       0       0       0       0       
      +0       0       0       0       0       0       0       0       0       0       0       0       0       0       0       
      +0       0       0       0       0       0       0       0       0       0       0       0       0       0       0       
      +0       0       0       0       0       0       0       0       0       0
  4962 ;;      Temps:          0       0       0       0       0       0       0       0       0       0       0       0       
      +0       0       0       0       0       0       0       0       0       0       0       0       0       0       0       
      +0       0       0       0       0       0       0       0       0       0       0       0       0       0       0       
      +0       0       0       0       0       0       0       0       0       0
  4963 ;;      Totals:         1       0       0       0       0       0       0       0       0       0       0       0       
      +0       0       0       0       0       0       0       0       0       0       0       0       0       0       0       
      +0       0       0       0       0       0       0       0       0       0       0       0       0       0       0       
      +0       0       0       0       0       0       0       0       0       0
  4964 ;;Total ram usage:        1 bytes
  4965 ;; Hardware stack levels used: 1
  4966 ;; Hardware stack levels required when called: 1
  4967 ;; This function calls:
  4968 ;;		Nothing
  4969 ;; This function is called by:
  4970 ;;		_lcd_init
  4971 ;;		_cursorxy
  4972 ;; This function uses a non-reentrant model
  4973 ;;
  4974                           
  4975                           
  4976                           ;psect for function _lcd_cmd
  4977  07DA                     _lcd_cmd:
  4978                           
  4979                           ;incstack = 0
  4980                           ; Regs used in _lcd_cmd: [wreg]
  4981                           ;lcd_cmd@cmd stored from wreg
  4982  07DA  00F1               	movwf	lcd_cmd@cmd
  4983  07DB                     l146:	
  4984                           ;main.c: 56: void lcd_cmd(unsigned char cmd);main.c: 57: {;main.c: 58:     do { LATEbits
      +                          .LATE0 = 0; } while(0);
  4985                           
  4986  07DB  0140               	movlb	0	; select bank0
  4987  07DC  101A               	bcf	26,0	;volatile
  4988  07DD                     l1644:
  4989                           
  4990                           ;main.c: 59:  LATD = cmd;
  4991  07DD  0871               	movf	lcd_cmd@cmd,w
  4992  07DE  0099               	movwf	25	;volatile
  4993  07DF                     l1646:
  4994  07DF  149A               	bsf	26,1	;volatile
  4995  07E0                     l149:
  4996                           
  4997                           ;main.c: 61:     _delay((unsigned long)((2)*(1000000/4000.0)));
  4998  07E0  30A6               	movlw	166
  4999  07E1                     u2097:
  5000  07E1  0B89               	decfsz	9,f
  5001  07E2  2FE1               	goto	u2097
  5002  07E3  3200               	nop2
  5003  07E4                     l1648:
  5004  07E4  0140               	movlb	0	; select bank0
  5005  07E5  109A               	bcf	26,1	;volatile
  5006  07E6                     l151:
  5007                           
  5008                           ;main.c: 63:     _delay((unsigned long)((2)*(1000000/4000.0)));
  5009  07E6  30A6               	movlw	166
  5010  07E7                     u2107:
  5011  07E7  0B89               	decfsz	9,f
  5012  07E8  2FE7               	goto	u2107
  5013  07E9  3200               	nop2
  5014  07EA                     l152:
  5015  07EA  0008               	return
  5016  07EB                     __end_of_lcd_cmd:
  5017                           
  5018                           	psect	text9
  5019  0547                     __ptext9:	
  5020 ;; *************** function ___xxtofl *****************
  5021 ;; Defined at:
  5022 ;;		line 10 in file "D:\Study\Microchip\xc8\v2.32\pic\sources\c99\common\xxtofl.c"
  5023 ;; Parameters:    Size  Location     Type
  5024 ;;  sign            1    wreg     unsigned char 
  5025 ;;  val             4    1[COMMON] long 
  5026 ;; Auto vars:     Size  Location     Type
  5027 ;;  sign            1    0[BANK0 ] unsigned char 
  5028 ;;  arg             4    2[BANK0 ] unsigned long 
  5029 ;;  exp             1    1[BANK0 ] unsigned char 
  5030 ;; Return value:  Size  Location     Type
  5031 ;;                  4    1[COMMON] unsigned char 
  5032 ;; Registers used:
  5033 ;;		wreg, status,2, status,0
  5034 ;; Tracked objects:
  5035 ;;		On entry : 0/0
  5036 ;;		On exit  : 0/0
  5037 ;;		Unchanged: 0/0
  5038 ;; Data sizes:     COMMON   BANK0   BANK1   BANK2   BANK3   BANK4   BANK5   BANK6   BANK7   BANK8   BANK9  BANK10  BANK1
      +1  BANK12  BANK13  BANK14  BANK15  BANK16  BANK17  BANK18  BANK19  BANK20  BANK21  BANK22  BANK23  BANK24  BANK25  BANK2
      +6  BANK27  BANK28  BANK29  BANK30  BANK31  BANK32  BANK33  BANK34  BANK35  BANK36  BANK37  BANK38  BANK39  BANK40  BANK4
      +1  BANK42  BANK43  BANK44  BANK45  BANK46  BANK47  BANK48  BANK49  BANK50
  5039 ;;      Params:         4       0       0       0       0       0       0       0       0       0       0       0       
      +0       0       0       0       0       0       0       0       0       0       0       0       0       0       0       
      +0       0       0       0       0       0       0       0       0       0       0       0       0       0       0       
      +0       0       0       0       0       0       0       0       0       0
  5040 ;;      Locals:         0       6       0       0       0       0       0       0       0       0       0       0       
      +0       0       0       0       0       0       0       0       0       0       0       0       0       0       0       
      +0       0       0       0       0       0       0       0       0       0       0       0       0       0       0       
      +0       0       0       0       0       0       0       0       0       0
  5041 ;;      Temps:          4       0       0       0       0       0       0       0       0       0       0       0       
      +0       0       0       0       0       0       0       0       0       0       0       0       0       0       0       
      +0       0       0       0       0       0       0       0       0       0       0       0       0       0       0       
      +0       0       0       0       0       0       0       0       0       0
  5042 ;;      Totals:         8       6       0       0       0       0       0       0       0       0       0       0       
      +0       0       0       0       0       0       0       0       0       0       0       0       0       0       0       
      +0       0       0       0       0       0       0       0       0       0       0       0       0       0       0       
      +0       0       0       0       0       0       0       0       0       0
  5043 ;;Total ram usage:       14 bytes
  5044 ;; Hardware stack levels used: 1
  5045 ;; Hardware stack levels required when called: 1
  5046 ;; This function calls:
  5047 ;;		Nothing
  5048 ;; This function is called by:
  5049 ;;		_main
  5050 ;; This function uses a non-reentrant model
  5051 ;;
  5052                           
  5053                           
  5054                           ;psect for function ___xxtofl
  5055  0547                     ___xxtofl:
  5056                           
  5057                           ;incstack = 0
  5058                           ; Regs used in ___xxtofl: [wreg+status,2+status,0]
  5059                           ;___xxtofl@sign stored from wreg
  5060  0547  0140               	movlb	0	; select bank0
  5061  0548  00A0               	movwf	___xxtofl@sign
  5062  0549                     l2056:
  5063  0549  0820               	movf	___xxtofl@sign,w
  5064  054A  1903               	btfsc	3,2
  5065  054B  2D4D               	goto	u1701
  5066  054C  2D4E               	goto	u1700
  5067  054D                     u1701:
  5068  054D  2D62               	goto	l2062
  5069  054E                     u1700:
  5070  054E                     l2058:
  5071  054E  1FF4               	btfss	___xxtofl@val+3,7
  5072  054F  2D51               	goto	u1711
  5073  0550  2D52               	goto	u1710
  5074  0551                     u1711:
  5075  0551  2D62               	goto	l2062
  5076  0552                     u1710:
  5077  0552                     l2060:
  5078  0552  0971               	comf	___xxtofl@val,w
  5079  0553  00A2               	movwf	___xxtofl@arg
  5080  0554  0972               	comf	___xxtofl@val+1,w
  5081  0555  00A3               	movwf	___xxtofl@arg+1
  5082  0556  0973               	comf	___xxtofl@val+2,w
  5083  0557  00A4               	movwf	___xxtofl@arg+2
  5084  0558  0974               	comf	___xxtofl@val+3,w
  5085  0559  00A5               	movwf	___xxtofl@arg+3
  5086  055A  0AA2               	incf	___xxtofl@arg,f
  5087  055B  1903               	skipnz
  5088  055C  0AA3               	incf	___xxtofl@arg+1,f
  5089  055D  1903               	skipnz
  5090  055E  0AA4               	incf	___xxtofl@arg+2,f
  5091  055F  1903               	skipnz
  5092  0560  0AA5               	incf	___xxtofl@arg+3,f
  5093  0561  2D6A               	goto	l985
  5094  0562                     l2062:
  5095  0562  0874               	movf	___xxtofl@val+3,w
  5096  0563  00A5               	movwf	___xxtofl@arg+3
  5097  0564  0873               	movf	___xxtofl@val+2,w
  5098  0565  00A4               	movwf	___xxtofl@arg+2
  5099  0566  0872               	movf	___xxtofl@val+1,w
  5100  0567  00A3               	movwf	___xxtofl@arg+1
  5101  0568  0871               	movf	___xxtofl@val,w
  5102  0569  00A2               	movwf	___xxtofl@arg
  5103  056A                     l985:
  5104  056A  0874               	movf	___xxtofl@val+3,w
  5105  056B  0473               	iorwf	___xxtofl@val+2,w
  5106  056C  0472               	iorwf	___xxtofl@val+1,w
  5107  056D  0471               	iorwf	___xxtofl@val,w
  5108  056E  1D03               	skipz
  5109  056F  2D71               	goto	u1721
  5110  0570  2D72               	goto	u1720
  5111  0571                     u1721:
  5112  0571  2D7B               	goto	l2068
  5113  0572                     u1720:
  5114  0572                     l2064:
  5115  0572  3000               	movlw	0
  5116  0573  00F4               	movwf	?___xxtofl+3
  5117  0574  3000               	movlw	0
  5118  0575  00F3               	movwf	?___xxtofl+2
  5119  0576  3000               	movlw	0
  5120  0577  00F2               	movwf	?___xxtofl+1
  5121  0578  3000               	movlw	0
  5122  0579  00F1               	movwf	?___xxtofl
  5123  057A  2DF3               	goto	l987
  5124  057B                     l2068:
  5125  057B  3096               	movlw	150
  5126  057C  00F5               	movwf	??___xxtofl
  5127  057D  0875               	movf	??___xxtofl,w
  5128  057E  00A1               	movwf	___xxtofl@exp
  5129  057F  2D8B               	goto	l2072
  5130  0580                     l2070:
  5131  0580  3001               	movlw	1
  5132  0581  00F5               	movwf	??___xxtofl
  5133  0582  0875               	movf	??___xxtofl,w
  5134  0583  07A1               	addwf	___xxtofl@exp,f
  5135  0584  3001               	movlw	1
  5136  0585                     u1735:
  5137  0585  36A5               	lsrf	___xxtofl@arg+3,f
  5138  0586  0CA4               	rrf	___xxtofl@arg+2,f
  5139  0587  0CA3               	rrf	___xxtofl@arg+1,f
  5140  0588  0CA2               	rrf	___xxtofl@arg,f
  5141  0589  0B89               	decfsz	9,f
  5142  058A  2D85               	goto	u1735
  5143  058B                     l2072:
  5144  058B  30FE               	movlw	254
  5145  058C  0525               	andwf	___xxtofl@arg+3,w
  5146  058D  1D03               	btfss	3,2
  5147  058E  2D90               	goto	u1741
  5148  058F  2D91               	goto	u1740
  5149  0590                     u1741:
  5150  0590  2D80               	goto	l2070
  5151  0591                     u1740:
  5152  0591  2DA5               	goto	l991
  5153  0592                     l2074:
  5154  0592  3001               	movlw	1
  5155  0593  00F5               	movwf	??___xxtofl
  5156  0594  0875               	movf	??___xxtofl,w
  5157  0595  07A1               	addwf	___xxtofl@exp,f
  5158  0596                     l2076:
  5159  0596  3001               	movlw	1
  5160  0597  07A2               	addwf	___xxtofl@arg,f
  5161  0598  3000               	movlw	0
  5162  0599  3DA3               	addwfc	___xxtofl@arg+1,f
  5163  059A  3000               	movlw	0
  5164  059B  3DA4               	addwfc	___xxtofl@arg+2,f
  5165  059C  3000               	movlw	0
  5166  059D  3DA5               	addwfc	___xxtofl@arg+3,f
  5167  059E                     l2078:
  5168  059E  3001               	movlw	1
  5169  059F                     u1755:
  5170  059F  36A5               	lsrf	___xxtofl@arg+3,f
  5171  05A0  0CA4               	rrf	___xxtofl@arg+2,f
  5172  05A1  0CA3               	rrf	___xxtofl@arg+1,f
  5173  05A2  0CA2               	rrf	___xxtofl@arg,f
  5174  05A3  0B89               	decfsz	9,f
  5175  05A4  2D9F               	goto	u1755
  5176  05A5                     l991:
  5177  05A5  30FF               	movlw	255
  5178  05A6  0525               	andwf	___xxtofl@arg+3,w
  5179  05A7  1D03               	btfss	3,2
  5180  05A8  2DAA               	goto	u1761
  5181  05A9  2DAB               	goto	u1760
  5182  05AA                     u1761:
  5183  05AA  2D92               	goto	l2074
  5184  05AB                     u1760:
  5185  05AB  2DB5               	goto	l2082
  5186  05AC                     l2080:
  5187  05AC  3001               	movlw	1
  5188  05AD  02A1               	subwf	___xxtofl@exp,f
  5189  05AE  3001               	movlw	1
  5190  05AF                     u1775:
  5191  05AF  35A2               	lslf	___xxtofl@arg,f
  5192  05B0  0DA3               	rlf	___xxtofl@arg+1,f
  5193  05B1  0DA4               	rlf	___xxtofl@arg+2,f
  5194  05B2  0DA5               	rlf	___xxtofl@arg+3,f
  5195  05B3  0B89               	decfsz	9,f
  5196  05B4  2DAF               	goto	u1775
  5197  05B5                     l2082:
  5198  05B5  1BA4               	btfsc	___xxtofl@arg+2,7
  5199  05B6  2DB8               	goto	u1781
  5200  05B7  2DB9               	goto	u1780
  5201  05B8                     u1781:
  5202  05B8  2DBF               	goto	l998
  5203  05B9                     u1780:
  5204  05B9                     l2084:
  5205  05B9  3002               	movlw	2
  5206  05BA  0221               	subwf	___xxtofl@exp,w
  5207  05BB  1803               	skipnc
  5208  05BC  2DBE               	goto	u1791
  5209  05BD  2DBF               	goto	u1790
  5210  05BE                     u1791:
  5211  05BE  2DAC               	goto	l2080
  5212  05BF                     u1790:
  5213  05BF                     l998:
  5214  05BF  1821               	btfsc	___xxtofl@exp,0
  5215  05C0  2DC2               	goto	u1801
  5216  05C1  2DC3               	goto	u1800
  5217  05C2                     u1801:
  5218  05C2  2DCB               	goto	l999
  5219  05C3                     u1800:
  5220  05C3                     l2086:
  5221  05C3  30FF               	movlw	255
  5222  05C4  05A2               	andwf	___xxtofl@arg,f
  5223  05C5  30FF               	movlw	255
  5224  05C6  05A3               	andwf	___xxtofl@arg+1,f
  5225  05C7  307F               	movlw	127
  5226  05C8  05A4               	andwf	___xxtofl@arg+2,f
  5227  05C9  30FF               	movlw	255
  5228  05CA  05A5               	andwf	___xxtofl@arg+3,f
  5229  05CB                     l999:
  5230  05CB  1003               	clrc
  5231  05CC  0CA1               	rrf	___xxtofl@exp,f
  5232  05CD                     l2088:
  5233  05CD  0821               	movf	___xxtofl@exp,w
  5234  05CE  00F5               	movwf	??___xxtofl
  5235  05CF  01F6               	clrf	??___xxtofl+1
  5236  05D0  01F7               	clrf	??___xxtofl+2
  5237  05D1  01F8               	clrf	??___xxtofl+3
  5238  05D2  3018               	movlw	24
  5239  05D3                     u1815:
  5240  05D3  35F5               	lslf	??___xxtofl,f
  5241  05D4  0DF6               	rlf	??___xxtofl+1,f
  5242  05D5  0DF7               	rlf	??___xxtofl+2,f
  5243  05D6  0DF8               	rlf	??___xxtofl+3,f
  5244  05D7                     u1810:
  5245  05D7  0B89               	decfsz	9,f
  5246  05D8  2DD3               	goto	u1815
  5247  05D9  0875               	movf	??___xxtofl,w
  5248  05DA  04A2               	iorwf	___xxtofl@arg,f
  5249  05DB  0876               	movf	??___xxtofl+1,w
  5250  05DC  04A3               	iorwf	___xxtofl@arg+1,f
  5251  05DD  0877               	movf	??___xxtofl+2,w
  5252  05DE  04A4               	iorwf	___xxtofl@arg+2,f
  5253  05DF  0878               	movf	??___xxtofl+3,w
  5254  05E0  04A5               	iorwf	___xxtofl@arg+3,f
  5255  05E1                     l2090:
  5256  05E1  0820               	movf	___xxtofl@sign,w
  5257  05E2  1903               	btfsc	3,2
  5258  05E3  2DE5               	goto	u1821
  5259  05E4  2DE6               	goto	u1820
  5260  05E5                     u1821:
  5261  05E5  2DEB               	goto	l2096
  5262  05E6                     u1820:
  5263  05E6                     l2092:
  5264  05E6  1FF4               	btfss	___xxtofl@val+3,7
  5265  05E7  2DE9               	goto	u1831
  5266  05E8  2DEA               	goto	u1830
  5267  05E9                     u1831:
  5268  05E9  2DEB               	goto	l2096
  5269  05EA                     u1830:
  5270  05EA                     l2094:
  5271  05EA  17A5               	bsf	___xxtofl@arg+3,7
  5272  05EB                     l2096:
  5273  05EB  0825               	movf	___xxtofl@arg+3,w
  5274  05EC  00F4               	movwf	?___xxtofl+3
  5275  05ED  0824               	movf	___xxtofl@arg+2,w
  5276  05EE  00F3               	movwf	?___xxtofl+2
  5277  05EF  0823               	movf	___xxtofl@arg+1,w
  5278  05F0  00F2               	movwf	?___xxtofl+1
  5279  05F1  0822               	movf	___xxtofl@arg,w
  5280  05F2  00F1               	movwf	?___xxtofl
  5281  05F3                     l987:
  5282  05F3  0008               	return
  5283  05F4                     __end_of___xxtofl:
  5284                           
  5285                           	psect	text10
  5286  05F4                     __ptext10:	
  5287 ;; *************** function ___fltol *****************
  5288 ;; Defined at:
  5289 ;;		line 43 in file "D:\Study\Microchip\xc8\v2.32\pic\sources\c99\common\fltol.c"
  5290 ;; Parameters:    Size  Location     Type
  5291 ;;  f1              4   32[BANK0 ] unsigned char 
  5292 ;; Auto vars:     Size  Location     Type
  5293 ;;  exp1            1   11[COMMON] unsigned char 
  5294 ;;  sign1           1   10[COMMON] unsigned char 
  5295 ;; Return value:  Size  Location     Type
  5296 ;;                  4   32[BANK0 ] long 
  5297 ;; Registers used:
  5298 ;;		wreg, status,2, status,0
  5299 ;; Tracked objects:
  5300 ;;		On entry : 0/0
  5301 ;;		On exit  : 0/0
  5302 ;;		Unchanged: 0/0
  5303 ;; Data sizes:     COMMON   BANK0   BANK1   BANK2   BANK3   BANK4   BANK5   BANK6   BANK7   BANK8   BANK9  BANK10  BANK1
      +1  BANK12  BANK13  BANK14  BANK15  BANK16  BANK17  BANK18  BANK19  BANK20  BANK21  BANK22  BANK23  BANK24  BANK25  BANK2
      +6  BANK27  BANK28  BANK29  BANK30  BANK31  BANK32  BANK33  BANK34  BANK35  BANK36  BANK37  BANK38  BANK39  BANK40  BANK4
      +1  BANK42  BANK43  BANK44  BANK45  BANK46  BANK47  BANK48  BANK49  BANK50
  5304 ;;      Params:         0       4       0       0       0       0       0       0       0       0       0       0       
      +0       0       0       0       0       0       0       0       0       0       0       0       0       0       0       
      +0       0       0       0       0       0       0       0       0       0       0       0       0       0       0       
      +0       0       0       0       0       0       0       0       0       0
  5305 ;;      Locals:         2       0       0       0       0       0       0       0       0       0       0       0       
      +0       0       0       0       0       0       0       0       0       0       0       0       0       0       0       
      +0       0       0       0       0       0       0       0       0       0       0       0       0       0       0       
      +0       0       0       0       0       0       0       0       0       0
  5306 ;;      Temps:          0       5       0       0       0       0       0       0       0       0       0       0       
      +0       0       0       0       0       0       0       0       0       0       0       0       0       0       0       
      +0       0       0       0       0       0       0       0       0       0       0       0       0       0       0       
      +0       0       0       0       0       0       0       0       0       0
  5307 ;;      Totals:         2       9       0       0       0       0       0       0       0       0       0       0       
      +0       0       0       0       0       0       0       0       0       0       0       0       0       0       0       
      +0       0       0       0       0       0       0       0       0       0       0       0       0       0       0       
      +0       0       0       0       0       0       0       0       0       0
  5308 ;;Total ram usage:       11 bytes
  5309 ;; Hardware stack levels used: 1
  5310 ;; Hardware stack levels required when called: 1
  5311 ;; This function calls:
  5312 ;;		Nothing
  5313 ;; This function is called by:
  5314 ;;		_main
  5315 ;; This function uses a non-reentrant model
  5316 ;;
  5317                           
  5318                           
  5319                           ;psect for function ___fltol
  5320  05F4                     ___fltol:
  5321  05F4                     l1880:	
  5322                           ;incstack = 0
  5323                           ; Regs used in ___fltol: [wreg+status,2+status,0]
  5324                           
  5325  05F4  1003               	clrc
  5326  05F5  0140               	movlb	0	; select bank0
  5327  05F6  0D42               	rlf	___fltol@f1+2,w
  5328  05F7  0D43               	rlf	___fltol@f1+3,w
  5329  05F8  00C4               	movwf	??___fltol
  5330  05F9  0844               	movf	??___fltol,w
  5331  05FA  00FB               	movwf	___fltol@exp1
  5332  05FB  087B               	movf	___fltol@exp1,w
  5333  05FC  1D03               	btfss	3,2
  5334  05FD  2DFF               	goto	u1341
  5335  05FE  2E00               	goto	u1340
  5336  05FF                     u1341:
  5337  05FF  2E09               	goto	l1886
  5338  0600                     u1340:
  5339  0600                     l1882:
  5340  0600  3000               	movlw	0
  5341  0601  00C3               	movwf	?___fltol+3
  5342  0602  3000               	movlw	0
  5343  0603  00C2               	movwf	?___fltol+2
  5344  0604  3000               	movlw	0
  5345  0605  00C1               	movwf	?___fltol+1
  5346  0606  3000               	movlw	0
  5347  0607  00C0               	movwf	?___fltol
  5348  0608  2E68               	goto	l738
  5349  0609                     l1886:
  5350  0609  0840               	movf	___fltol@f1,w
  5351  060A  00C4               	movwf	??___fltol
  5352  060B  0841               	movf	___fltol@f1+1,w
  5353  060C  00C5               	movwf	??___fltol+1
  5354  060D  0842               	movf	___fltol@f1+2,w
  5355  060E  00C6               	movwf	??___fltol+2
  5356  060F  0843               	movf	___fltol@f1+3,w
  5357  0610  00C7               	movwf	??___fltol+3
  5358  0611  301F               	movlw	31
  5359  0612                     u1355:
  5360  0612  36C7               	lsrf	??___fltol+3,f
  5361  0613  0CC6               	rrf	??___fltol+2,f
  5362  0614  0CC5               	rrf	??___fltol+1,f
  5363  0615  0CC4               	rrf	??___fltol,f
  5364  0616                     u1350:
  5365  0616  0B89               	decfsz	9,f
  5366  0617  2E12               	goto	u1355
  5367  0618  0844               	movf	??___fltol,w
  5368  0619  00C8               	movwf	??___fltol+4
  5369  061A  0848               	movf	??___fltol+4,w
  5370  061B  00FA               	movwf	___fltol@sign1
  5371  061C                     l1888:
  5372  061C  17C2               	bsf	___fltol@f1+2,7
  5373  061D                     l1890:
  5374  061D  30FF               	movlw	255
  5375  061E  05C0               	andwf	___fltol@f1,f
  5376  061F  30FF               	movlw	255
  5377  0620  05C1               	andwf	___fltol@f1+1,f
  5378  0621  30FF               	movlw	255
  5379  0622  05C2               	andwf	___fltol@f1+2,f
  5380  0623  3000               	movlw	0
  5381  0624  05C3               	andwf	___fltol@f1+3,f
  5382  0625                     l1892:
  5383  0625  3096               	movlw	150
  5384  0626  02FB               	subwf	___fltol@exp1,f
  5385  0627                     l1894:
  5386  0627  1FFB               	btfss	___fltol@exp1,7
  5387  0628  2E2A               	goto	u1361
  5388  0629  2E2B               	goto	u1360
  5389  062A                     u1361:
  5390  062A  2E43               	goto	l1904
  5391  062B                     u1360:
  5392  062B                     l1896:
  5393  062B  087B               	movf	___fltol@exp1,w
  5394  062C  3A80               	xorlw	128
  5395  062D  3E97               	addlw	151
  5396  062E  1803               	skipnc
  5397  062F  2E31               	goto	u1371
  5398  0630  2E32               	goto	u1370
  5399  0631                     u1371:
  5400  0631  2E33               	goto	l1902
  5401  0632                     u1370:
  5402  0632  2E00               	goto	l1882
  5403  0633                     l1902:
  5404  0633  3001               	movlw	1
  5405  0634                     u1385:
  5406  0634  36C3               	lsrf	___fltol@f1+3,f
  5407  0635  0CC2               	rrf	___fltol@f1+2,f
  5408  0636  0CC1               	rrf	___fltol@f1+1,f
  5409  0637  0CC0               	rrf	___fltol@f1,f
  5410  0638  0B89               	decfsz	9,f
  5411  0639  2E34               	goto	u1385
  5412  063A  3001               	movlw	1
  5413  063B  00C4               	movwf	??___fltol
  5414  063C  0844               	movf	??___fltol,w
  5415  063D  07FB               	addwf	___fltol@exp1,f
  5416  063E  1D03               	btfss	3,2
  5417  063F  2E41               	goto	u1391
  5418  0640  2E42               	goto	u1390
  5419  0641                     u1391:
  5420  0641  2E33               	goto	l1902
  5421  0642                     u1390:
  5422  0642  2E58               	goto	l1912
  5423  0643                     l1904:
  5424  0643  3020               	movlw	32
  5425  0644  027B               	subwf	___fltol@exp1,w
  5426  0645  1C03               	skipc
  5427  0646  2E48               	goto	u1401
  5428  0647  2E49               	goto	u1400
  5429  0648                     u1401:
  5430  0648  2E53               	goto	l745
  5431  0649                     u1400:
  5432  0649  2E00               	goto	l1882
  5433  064A                     l1910:
  5434  064A  3001               	movlw	1
  5435  064B                     u1415:
  5436  064B  35C0               	lslf	___fltol@f1,f
  5437  064C  0DC1               	rlf	___fltol@f1+1,f
  5438  064D  0DC2               	rlf	___fltol@f1+2,f
  5439  064E  0DC3               	rlf	___fltol@f1+3,f
  5440  064F  0B89               	decfsz	9,f
  5441  0650  2E4B               	goto	u1415
  5442  0651  3001               	movlw	1
  5443  0652  02FB               	subwf	___fltol@exp1,f
  5444  0653                     l745:
  5445  0653  087B               	movf	___fltol@exp1,w
  5446  0654  1D03               	btfss	3,2
  5447  0655  2E57               	goto	u1421
  5448  0656  2E58               	goto	u1420
  5449  0657                     u1421:
  5450  0657  2E4A               	goto	l1910
  5451  0658                     u1420:
  5452  0658                     l1912:
  5453  0658  087A               	movf	___fltol@sign1,w
  5454  0659  1903               	btfsc	3,2
  5455  065A  2E5C               	goto	u1431
  5456  065B  2E5D               	goto	u1430
  5457  065C                     u1431:
  5458  065C  2E68               	goto	l748
  5459  065D                     u1430:
  5460  065D                     l1914:
  5461  065D  09C0               	comf	___fltol@f1,f
  5462  065E  09C1               	comf	___fltol@f1+1,f
  5463  065F  09C2               	comf	___fltol@f1+2,f
  5464  0660  09C3               	comf	___fltol@f1+3,f
  5465  0661  0AC0               	incf	___fltol@f1,f
  5466  0662  1903               	skipnz
  5467  0663  0AC1               	incf	___fltol@f1+1,f
  5468  0664  1903               	skipnz
  5469  0665  0AC2               	incf	___fltol@f1+2,f
  5470  0666  1903               	skipnz
  5471  0667  0AC3               	incf	___fltol@f1+3,f
  5472  0668                     l748:
  5473  0668                     l738:
  5474  0668  0008               	return
  5475  0669                     __end_of___fltol:
  5476                           
  5477                           	psect	text11
  5478  0036                     __ptext11:	
  5479 ;; *************** function ___flmul *****************
  5480 ;; Defined at:
  5481 ;;		line 8 in file "D:\Study\Microchip\xc8\v2.32\pic\sources\c99\common\sprcmul.c"
  5482 ;; Parameters:    Size  Location     Type
  5483 ;;  b               4    6[BANK0 ] long 
  5484 ;;  a               4   10[BANK0 ] long 
  5485 ;; Auto vars:     Size  Location     Type
  5486 ;;  prod            4   26[BANK0 ] struct .
  5487 ;;  grs             4   20[BANK0 ] unsigned long 
  5488 ;;  temp            2   30[BANK0 ] struct .
  5489 ;;  bexp            1   25[BANK0 ] unsigned char 
  5490 ;;  aexp            1   24[BANK0 ] unsigned char 
  5491 ;;  sign            1   19[BANK0 ] unsigned char 
  5492 ;; Return value:  Size  Location     Type
  5493 ;;                  4    6[BANK0 ] unsigned char 
  5494 ;; Registers used:
  5495 ;;		wreg, status,2, status,0, pclath, cstack
  5496 ;; Tracked objects:
  5497 ;;		On entry : 0/0
  5498 ;;		On exit  : 0/0
  5499 ;;		Unchanged: 0/0
  5500 ;; Data sizes:     COMMON   BANK0   BANK1   BANK2   BANK3   BANK4   BANK5   BANK6   BANK7   BANK8   BANK9  BANK10  BANK1
      +1  BANK12  BANK13  BANK14  BANK15  BANK16  BANK17  BANK18  BANK19  BANK20  BANK21  BANK22  BANK23  BANK24  BANK25  BANK2
      +6  BANK27  BANK28  BANK29  BANK30  BANK31  BANK32  BANK33  BANK34  BANK35  BANK36  BANK37  BANK38  BANK39  BANK40  BANK4
      +1  BANK42  BANK43  BANK44  BANK45  BANK46  BANK47  BANK48  BANK49  BANK50
  5501 ;;      Params:         0       8       0       0       0       0       0       0       0       0       0       0       
      +0       0       0       0       0       0       0       0       0       0       0       0       0       0       0       
      +0       0       0       0       0       0       0       0       0       0       0       0       0       0       0       
      +0       0       0       0       0       0       0       0       0       0
  5502 ;;      Locals:         0      13       0       0       0       0       0       0       0       0       0       0       
      +0       0       0       0       0       0       0       0       0       0       0       0       0       0       0       
      +0       0       0       0       0       0       0       0       0       0       0       0       0       0       0       
      +0       0       0       0       0       0       0       0       0       0
  5503 ;;      Temps:          0       5       0       0       0       0       0       0       0       0       0       0       
      +0       0       0       0       0       0       0       0       0       0       0       0       0       0       0       
      +0       0       0       0       0       0       0       0       0       0       0       0       0       0       0       
      +0       0       0       0       0       0       0       0       0       0
  5504 ;;      Totals:         0      26       0       0       0       0       0       0       0       0       0       0       
      +0       0       0       0       0       0       0       0       0       0       0       0       0       0       0       
      +0       0       0       0       0       0       0       0       0       0       0       0       0       0       0       
      +0       0       0       0       0       0       0       0       0       0
  5505 ;;Total ram usage:       26 bytes
  5506 ;; Hardware stack levels used: 1
  5507 ;; Hardware stack levels required when called: 2
  5508 ;; This function calls:
  5509 ;;		__Umul8_16
  5510 ;; This function is called by:
  5511 ;;		_main
  5512 ;; This function uses a non-reentrant model
  5513 ;;
  5514                           
  5515                           
  5516                           ;psect for function ___flmul
  5517  0036                     ___flmul:
  5518  0036                     l1916:	
  5519                           ;incstack = 0
  5520                           ; Regs used in ___flmul: [wreg+status,2+status,0+pclath+cstack]
  5521                           
  5522  0036  0140               	movlb	0	; select bank0
  5523  0037  0829               	movf	___flmul@b+3,w
  5524  0038  3980               	andlw	128
  5525  0039  00AE               	movwf	??___flmul
  5526  003A  082E               	movf	??___flmul,w
  5527  003B  00B3               	movwf	___flmul@sign
  5528  003C                     l1918:
  5529  003C  3529               	lslf	___flmul@b+3,w
  5530  003D  00AE               	movwf	??___flmul
  5531  003E  082E               	movf	??___flmul,w
  5532  003F  00B9               	movwf	___flmul@bexp
  5533  0040                     l1920:
  5534  0040  1FA8               	btfss	___flmul@b+2,7
  5535  0041  2843               	goto	u1441
  5536  0042  2844               	goto	u1440
  5537  0043                     u1441:
  5538  0043  2845               	goto	l1924
  5539  0044                     u1440:
  5540  0044                     l1922:
  5541  0044  1439               	bsf	___flmul@bexp,0
  5542  0045                     l1924:
  5543  0045  0839               	movf	___flmul@bexp,w
  5544  0046  1903               	btfsc	3,2
  5545  0047  2849               	goto	u1451
  5546  0048  284A               	goto	u1450
  5547  0049                     u1451:
  5548  0049  2859               	goto	l1932
  5549  004A                     u1450:
  5550  004A                     l1926:
  5551  004A  0A39               	incf	___flmul@bexp,w
  5552  004B  1D03               	btfss	3,2
  5553  004C  284E               	goto	u1461
  5554  004D  284F               	goto	u1460
  5555  004E                     u1461:
  5556  004E  2857               	goto	l1930
  5557  004F                     u1460:
  5558  004F                     l1928:
  5559  004F  3000               	movlw	0
  5560  0050  00A9               	movwf	___flmul@b+3
  5561  0051  3000               	movlw	0
  5562  0052  00A8               	movwf	___flmul@b+2
  5563  0053  3000               	movlw	0
  5564  0054  00A7               	movwf	___flmul@b+1
  5565  0055  3000               	movlw	0
  5566  0056  00A6               	movwf	___flmul@b
  5567  0057                     l1930:
  5568  0057  17A8               	bsf	___flmul@b+2,7
  5569  0058  2861               	goto	l1934
  5570  0059                     l1932:
  5571  0059  3000               	movlw	0
  5572  005A  00A9               	movwf	___flmul@b+3
  5573  005B  3000               	movlw	0
  5574  005C  00A8               	movwf	___flmul@b+2
  5575  005D  3000               	movlw	0
  5576  005E  00A7               	movwf	___flmul@b+1
  5577  005F  3000               	movlw	0
  5578  0060  00A6               	movwf	___flmul@b
  5579  0061                     l1934:
  5580  0061  082D               	movf	___flmul@a+3,w
  5581  0062  3980               	andlw	128
  5582  0063  00AE               	movwf	??___flmul
  5583  0064  082E               	movf	??___flmul,w
  5584  0065  06B3               	xorwf	___flmul@sign,f
  5585  0066                     l1936:
  5586  0066  352D               	lslf	___flmul@a+3,w
  5587  0067  00AE               	movwf	??___flmul
  5588  0068  082E               	movf	??___flmul,w
  5589  0069  00B8               	movwf	___flmul@aexp
  5590  006A                     l1938:
  5591  006A  1FAC               	btfss	___flmul@a+2,7
  5592  006B  286D               	goto	u1471
  5593  006C  286E               	goto	u1470
  5594  006D                     u1471:
  5595  006D  286F               	goto	l1942
  5596  006E                     u1470:
  5597  006E                     l1940:
  5598  006E  1438               	bsf	___flmul@aexp,0
  5599  006F                     l1942:
  5600  006F  0838               	movf	___flmul@aexp,w
  5601  0070  1903               	btfsc	3,2
  5602  0071  2873               	goto	u1481
  5603  0072  2874               	goto	u1480
  5604  0073                     u1481:
  5605  0073  2883               	goto	l1950
  5606  0074                     u1480:
  5607  0074                     l1944:
  5608  0074  0A38               	incf	___flmul@aexp,w
  5609  0075  1D03               	btfss	3,2
  5610  0076  2878               	goto	u1491
  5611  0077  2879               	goto	u1490
  5612  0078                     u1491:
  5613  0078  2881               	goto	l1948
  5614  0079                     u1490:
  5615  0079                     l1946:
  5616  0079  3000               	movlw	0
  5617  007A  00AD               	movwf	___flmul@a+3
  5618  007B  3000               	movlw	0
  5619  007C  00AC               	movwf	___flmul@a+2
  5620  007D  3000               	movlw	0
  5621  007E  00AB               	movwf	___flmul@a+1
  5622  007F  3000               	movlw	0
  5623  0080  00AA               	movwf	___flmul@a
  5624  0081                     l1948:
  5625  0081  17AC               	bsf	___flmul@a+2,7
  5626  0082  288B               	goto	l1952
  5627  0083                     l1950:
  5628  0083  3000               	movlw	0
  5629  0084  00AD               	movwf	___flmul@a+3
  5630  0085  3000               	movlw	0
  5631  0086  00AC               	movwf	___flmul@a+2
  5632  0087  3000               	movlw	0
  5633  0088  00AB               	movwf	___flmul@a+1
  5634  0089  3000               	movlw	0
  5635  008A  00AA               	movwf	___flmul@a
  5636  008B                     l1952:
  5637  008B  0838               	movf	___flmul@aexp,w
  5638  008C  1903               	btfsc	3,2
  5639  008D  288F               	goto	u1501
  5640  008E  2890               	goto	u1500
  5641  008F                     u1501:
  5642  008F  2895               	goto	l1956
  5643  0090                     u1500:
  5644  0090                     l1954:
  5645  0090  0839               	movf	___flmul@bexp,w
  5646  0091  1D03               	btfss	3,2
  5647  0092  2894               	goto	u1511
  5648  0093  2895               	goto	u1510
  5649  0094                     u1511:
  5650  0094  289E               	goto	l1960
  5651  0095                     u1510:
  5652  0095                     l1956:
  5653  0095  3000               	movlw	0
  5654  0096  00A9               	movwf	?___flmul+3
  5655  0097  3000               	movlw	0
  5656  0098  00A8               	movwf	?___flmul+2
  5657  0099  3000               	movlw	0
  5658  009A  00A7               	movwf	?___flmul+1
  5659  009B  3000               	movlw	0
  5660  009C  00A6               	movwf	?___flmul
  5661  009D  2A8C               	goto	l941
  5662  009E                     l1960:
  5663  009E  0826               	movf	___flmul@b,w
  5664  009F  00AE               	movwf	??___flmul
  5665  00A0  082E               	movf	??___flmul,w
  5666  00A1  00F1               	movwf	__Umul8_16@multiplicand
  5667  00A2  082C               	movf	___flmul@a+2,w
  5668  00A3  3187  276F  3180   	fcall	__Umul8_16
  5669  00A6  0872               	movf	?__Umul8_16+1,w
  5670  00A7  0140               	movlb	0	; select bank0
  5671  00A8  00BF               	movwf	___flmul@temp+1
  5672  00A9  0871               	movf	?__Umul8_16,w
  5673  00AA  00BE               	movwf	___flmul@temp
  5674  00AB                     l1962:
  5675  00AB  083E               	movf	___flmul@temp,w
  5676  00AC  00AE               	movwf	??___flmul
  5677  00AD  01AF               	clrf	??___flmul+1
  5678  00AE  01B0               	clrf	??___flmul+2
  5679  00AF  01B1               	clrf	??___flmul+3
  5680  00B0  0831               	movf	??___flmul+3,w
  5681  00B1  00B7               	movwf	___flmul@grs+3
  5682  00B2  0830               	movf	??___flmul+2,w
  5683  00B3  00B6               	movwf	___flmul@grs+2
  5684  00B4  082F               	movf	??___flmul+1,w
  5685  00B5  00B5               	movwf	___flmul@grs+1
  5686  00B6  082E               	movf	??___flmul,w
  5687  00B7  00B4               	movwf	___flmul@grs
  5688  00B8                     l1964:
  5689  00B8  083F               	movf	___flmul@temp+1,w
  5690  00B9  00AE               	movwf	??___flmul
  5691  00BA  01AF               	clrf	??___flmul+1
  5692  00BB  01B0               	clrf	??___flmul+2
  5693  00BC  01B1               	clrf	??___flmul+3
  5694  00BD  0831               	movf	??___flmul+3,w
  5695  00BE  00BD               	movwf	___flmul@prod+3
  5696  00BF  0830               	movf	??___flmul+2,w
  5697  00C0  00BC               	movwf	___flmul@prod+2
  5698  00C1  082F               	movf	??___flmul+1,w
  5699  00C2  00BB               	movwf	___flmul@prod+1
  5700  00C3  082E               	movf	??___flmul,w
  5701  00C4  00BA               	movwf	___flmul@prod
  5702  00C5  0827               	movf	___flmul@b+1,w
  5703  00C6  00AE               	movwf	??___flmul
  5704  00C7  082E               	movf	??___flmul,w
  5705  00C8  00F1               	movwf	__Umul8_16@multiplicand
  5706  00C9  082B               	movf	___flmul@a+1,w
  5707  00CA  3187  276F  3180   	fcall	__Umul8_16
  5708  00CD  0872               	movf	?__Umul8_16+1,w
  5709  00CE  0140               	movlb	0	; select bank0
  5710  00CF  00BF               	movwf	___flmul@temp+1
  5711  00D0  0871               	movf	?__Umul8_16,w
  5712  00D1  00BE               	movwf	___flmul@temp
  5713  00D2                     l1966:
  5714  00D2  083E               	movf	___flmul@temp,w
  5715  00D3  00AE               	movwf	??___flmul
  5716  00D4  01AF               	clrf	??___flmul+1
  5717  00D5  01B0               	clrf	??___flmul+2
  5718  00D6  01B1               	clrf	??___flmul+3
  5719  00D7  082E               	movf	??___flmul,w
  5720  00D8  07B4               	addwf	___flmul@grs,f
  5721  00D9  082F               	movf	??___flmul+1,w
  5722  00DA  3DB5               	addwfc	___flmul@grs+1,f
  5723  00DB  0830               	movf	??___flmul+2,w
  5724  00DC  3DB6               	addwfc	___flmul@grs+2,f
  5725  00DD  0831               	movf	??___flmul+3,w
  5726  00DE  3DB7               	addwfc	___flmul@grs+3,f
  5727  00DF                     l1968:
  5728  00DF  083F               	movf	___flmul@temp+1,w
  5729  00E0  00AE               	movwf	??___flmul
  5730  00E1  01AF               	clrf	??___flmul+1
  5731  00E2  01B0               	clrf	??___flmul+2
  5732  00E3  01B1               	clrf	??___flmul+3
  5733  00E4  082E               	movf	??___flmul,w
  5734  00E5  07BA               	addwf	___flmul@prod,f
  5735  00E6  082F               	movf	??___flmul+1,w
  5736  00E7  3DBB               	addwfc	___flmul@prod+1,f
  5737  00E8  0830               	movf	??___flmul+2,w
  5738  00E9  3DBC               	addwfc	___flmul@prod+2,f
  5739  00EA  0831               	movf	??___flmul+3,w
  5740  00EB  3DBD               	addwfc	___flmul@prod+3,f
  5741  00EC  0828               	movf	___flmul@b+2,w
  5742  00ED  00AE               	movwf	??___flmul
  5743  00EE  082E               	movf	??___flmul,w
  5744  00EF  00F1               	movwf	__Umul8_16@multiplicand
  5745  00F0  082A               	movf	___flmul@a,w
  5746  00F1  3187  276F  3180   	fcall	__Umul8_16
  5747  00F4  0872               	movf	?__Umul8_16+1,w
  5748  00F5  0140               	movlb	0	; select bank0
  5749  00F6  00BF               	movwf	___flmul@temp+1
  5750  00F7  0871               	movf	?__Umul8_16,w
  5751  00F8  00BE               	movwf	___flmul@temp
  5752  00F9                     l1970:
  5753  00F9  083E               	movf	___flmul@temp,w
  5754  00FA  00AE               	movwf	??___flmul
  5755  00FB  01AF               	clrf	??___flmul+1
  5756  00FC  01B0               	clrf	??___flmul+2
  5757  00FD  01B1               	clrf	??___flmul+3
  5758  00FE  082E               	movf	??___flmul,w
  5759  00FF  07B4               	addwf	___flmul@grs,f
  5760  0100  082F               	movf	??___flmul+1,w
  5761  0101  3DB5               	addwfc	___flmul@grs+1,f
  5762  0102  0830               	movf	??___flmul+2,w
  5763  0103  3DB6               	addwfc	___flmul@grs+2,f
  5764  0104  0831               	movf	??___flmul+3,w
  5765  0105  3DB7               	addwfc	___flmul@grs+3,f
  5766  0106                     l1972:
  5767  0106  083F               	movf	___flmul@temp+1,w
  5768  0107  00AE               	movwf	??___flmul
  5769  0108  01AF               	clrf	??___flmul+1
  5770  0109  01B0               	clrf	??___flmul+2
  5771  010A  01B1               	clrf	??___flmul+3
  5772  010B  082E               	movf	??___flmul,w
  5773  010C  07BA               	addwf	___flmul@prod,f
  5774  010D  082F               	movf	??___flmul+1,w
  5775  010E  3DBB               	addwfc	___flmul@prod+1,f
  5776  010F  0830               	movf	??___flmul+2,w
  5777  0110  3DBC               	addwfc	___flmul@prod+2,f
  5778  0111  0831               	movf	??___flmul+3,w
  5779  0112  3DBD               	addwfc	___flmul@prod+3,f
  5780  0113                     l1974:
  5781  0113  3008               	movlw	8
  5782  0114                     u1525:
  5783  0114  35B4               	lslf	___flmul@grs,f
  5784  0115  0DB5               	rlf	___flmul@grs+1,f
  5785  0116  0DB6               	rlf	___flmul@grs+2,f
  5786  0117  0DB7               	rlf	___flmul@grs+3,f
  5787  0118  0B89               	decfsz	9,f
  5788  0119  2914               	goto	u1525
  5789  011A                     l1976:
  5790  011A  0827               	movf	___flmul@b+1,w
  5791  011B  00AE               	movwf	??___flmul
  5792  011C  082E               	movf	??___flmul,w
  5793  011D  00F1               	movwf	__Umul8_16@multiplicand
  5794  011E  082A               	movf	___flmul@a,w
  5795  011F  3187  276F  3180   	fcall	__Umul8_16
  5796  0122  0872               	movf	?__Umul8_16+1,w
  5797  0123  0140               	movlb	0	; select bank0
  5798  0124  00BF               	movwf	___flmul@temp+1
  5799  0125  0871               	movf	?__Umul8_16,w
  5800  0126  00BE               	movwf	___flmul@temp
  5801  0127                     l1978:
  5802  0127  083E               	movf	___flmul@temp,w
  5803  0128  07B4               	addwf	___flmul@grs,f
  5804  0129  083F               	movf	___flmul@temp+1,w
  5805  012A  3DB5               	addwfc	___flmul@grs+1,f
  5806  012B  3000               	movlw	0
  5807  012C  3DB6               	addwfc	___flmul@grs+2,f
  5808  012D  3DB7               	addwfc	___flmul@grs+3,f
  5809  012E                     l1980:
  5810  012E  0826               	movf	___flmul@b,w
  5811  012F  00AE               	movwf	??___flmul
  5812  0130  082E               	movf	??___flmul,w
  5813  0131  00F1               	movwf	__Umul8_16@multiplicand
  5814  0132  082B               	movf	___flmul@a+1,w
  5815  0133  3187  276F  3180   	fcall	__Umul8_16
  5816  0136  0872               	movf	?__Umul8_16+1,w
  5817  0137  0140               	movlb	0	; select bank0
  5818  0138  00BF               	movwf	___flmul@temp+1
  5819  0139  0871               	movf	?__Umul8_16,w
  5820  013A  00BE               	movwf	___flmul@temp
  5821  013B                     l1982:
  5822  013B  083E               	movf	___flmul@temp,w
  5823  013C  07B4               	addwf	___flmul@grs,f
  5824  013D  083F               	movf	___flmul@temp+1,w
  5825  013E  3DB5               	addwfc	___flmul@grs+1,f
  5826  013F  3000               	movlw	0
  5827  0140  3DB6               	addwfc	___flmul@grs+2,f
  5828  0141  3DB7               	addwfc	___flmul@grs+3,f
  5829  0142                     l1984:
  5830  0142  3008               	movlw	8
  5831  0143                     u1535:
  5832  0143  35B4               	lslf	___flmul@grs,f
  5833  0144  0DB5               	rlf	___flmul@grs+1,f
  5834  0145  0DB6               	rlf	___flmul@grs+2,f
  5835  0146  0DB7               	rlf	___flmul@grs+3,f
  5836  0147  0B89               	decfsz	9,f
  5837  0148  2943               	goto	u1535
  5838  0149  0826               	movf	___flmul@b,w
  5839  014A  00AE               	movwf	??___flmul
  5840  014B  082E               	movf	??___flmul,w
  5841  014C  00F1               	movwf	__Umul8_16@multiplicand
  5842  014D  082A               	movf	___flmul@a,w
  5843  014E  3187  276F  3180   	fcall	__Umul8_16
  5844  0151  0872               	movf	?__Umul8_16+1,w
  5845  0152  0140               	movlb	0	; select bank0
  5846  0153  00BF               	movwf	___flmul@temp+1
  5847  0154  0871               	movf	?__Umul8_16,w
  5848  0155  00BE               	movwf	___flmul@temp
  5849  0156                     l1986:
  5850  0156  083E               	movf	___flmul@temp,w
  5851  0157  07B4               	addwf	___flmul@grs,f
  5852  0158  083F               	movf	___flmul@temp+1,w
  5853  0159  3DB5               	addwfc	___flmul@grs+1,f
  5854  015A  3000               	movlw	0
  5855  015B  3DB6               	addwfc	___flmul@grs+2,f
  5856  015C  3DB7               	addwfc	___flmul@grs+3,f
  5857  015D                     l1988:
  5858  015D  0827               	movf	___flmul@b+1,w
  5859  015E  00AE               	movwf	??___flmul
  5860  015F  082E               	movf	??___flmul,w
  5861  0160  00F1               	movwf	__Umul8_16@multiplicand
  5862  0161  082C               	movf	___flmul@a+2,w
  5863  0162  3187  276F  3180   	fcall	__Umul8_16
  5864  0165  0872               	movf	?__Umul8_16+1,w
  5865  0166  0140               	movlb	0	; select bank0
  5866  0167  00BF               	movwf	___flmul@temp+1
  5867  0168  0871               	movf	?__Umul8_16,w
  5868  0169  00BE               	movwf	___flmul@temp
  5869  016A  083E               	movf	___flmul@temp,w
  5870  016B  07BA               	addwf	___flmul@prod,f
  5871  016C  083F               	movf	___flmul@temp+1,w
  5872  016D  3DBB               	addwfc	___flmul@prod+1,f
  5873  016E  3000               	movlw	0
  5874  016F  3DBC               	addwfc	___flmul@prod+2,f
  5875  0170  3DBD               	addwfc	___flmul@prod+3,f
  5876  0171                     l1990:
  5877  0171  0828               	movf	___flmul@b+2,w
  5878  0172  00AE               	movwf	??___flmul
  5879  0173  082E               	movf	??___flmul,w
  5880  0174  00F1               	movwf	__Umul8_16@multiplicand
  5881  0175  082B               	movf	___flmul@a+1,w
  5882  0176  3187  276F  3180   	fcall	__Umul8_16
  5883  0179  0872               	movf	?__Umul8_16+1,w
  5884  017A  0140               	movlb	0	; select bank0
  5885  017B  00BF               	movwf	___flmul@temp+1
  5886  017C  0871               	movf	?__Umul8_16,w
  5887  017D  00BE               	movwf	___flmul@temp
  5888  017E                     l1992:
  5889  017E  083E               	movf	___flmul@temp,w
  5890  017F  07BA               	addwf	___flmul@prod,f
  5891  0180  083F               	movf	___flmul@temp+1,w
  5892  0181  3DBB               	addwfc	___flmul@prod+1,f
  5893  0182  3000               	movlw	0
  5894  0183  3DBC               	addwfc	___flmul@prod+2,f
  5895  0184  3DBD               	addwfc	___flmul@prod+3,f
  5896  0185  0828               	movf	___flmul@b+2,w
  5897  0186  00AE               	movwf	??___flmul
  5898  0187  082E               	movf	??___flmul,w
  5899  0188  00F1               	movwf	__Umul8_16@multiplicand
  5900  0189  082C               	movf	___flmul@a+2,w
  5901  018A  3187  276F  3180   	fcall	__Umul8_16
  5902  018D  0872               	movf	?__Umul8_16+1,w
  5903  018E  0140               	movlb	0	; select bank0
  5904  018F  00BF               	movwf	___flmul@temp+1
  5905  0190  0871               	movf	?__Umul8_16,w
  5906  0191  00BE               	movwf	___flmul@temp
  5907  0192                     l1994:
  5908  0192  083E               	movf	___flmul@temp,w
  5909  0193  00AE               	movwf	??___flmul
  5910  0194  083F               	movf	___flmul@temp+1,w
  5911  0195  00AF               	movwf	??___flmul+1
  5912  0196  01B0               	clrf	??___flmul+2
  5913  0197  01B1               	clrf	??___flmul+3
  5914  0198  3008               	movlw	8
  5915  0199                     u1545:
  5916  0199  35AE               	lslf	??___flmul,f
  5917  019A  0DAF               	rlf	??___flmul+1,f
  5918  019B  0DB0               	rlf	??___flmul+2,f
  5919  019C  0DB1               	rlf	??___flmul+3,f
  5920  019D                     u1540:
  5921  019D  0B89               	decfsz	9,f
  5922  019E  2999               	goto	u1545
  5923  019F  082E               	movf	??___flmul,w
  5924  01A0  07BA               	addwf	___flmul@prod,f
  5925  01A1  082F               	movf	??___flmul+1,w
  5926  01A2  3DBB               	addwfc	___flmul@prod+1,f
  5927  01A3  0830               	movf	??___flmul+2,w
  5928  01A4  3DBC               	addwfc	___flmul@prod+2,f
  5929  01A5  0831               	movf	??___flmul+3,w
  5930  01A6  3DBD               	addwfc	___flmul@prod+3,f
  5931  01A7                     l1996:
  5932  01A7  0834               	movf	___flmul@grs,w
  5933  01A8  00AE               	movwf	??___flmul
  5934  01A9  0835               	movf	___flmul@grs+1,w
  5935  01AA  00AF               	movwf	??___flmul+1
  5936  01AB  0836               	movf	___flmul@grs+2,w
  5937  01AC  00B0               	movwf	??___flmul+2
  5938  01AD  0837               	movf	___flmul@grs+3,w
  5939  01AE  00B1               	movwf	??___flmul+3
  5940  01AF  3018               	movlw	24
  5941  01B0                     u1555:
  5942  01B0  36B1               	lsrf	??___flmul+3,f
  5943  01B1  0CB0               	rrf	??___flmul+2,f
  5944  01B2  0CAF               	rrf	??___flmul+1,f
  5945  01B3  0CAE               	rrf	??___flmul,f
  5946  01B4                     u1550:
  5947  01B4  0B89               	decfsz	9,f
  5948  01B5  29B0               	goto	u1555
  5949  01B6  082E               	movf	??___flmul,w
  5950  01B7  07BA               	addwf	___flmul@prod,f
  5951  01B8  082F               	movf	??___flmul+1,w
  5952  01B9  3DBB               	addwfc	___flmul@prod+1,f
  5953  01BA  0830               	movf	??___flmul+2,w
  5954  01BB  3DBC               	addwfc	___flmul@prod+2,f
  5955  01BC  0831               	movf	??___flmul+3,w
  5956  01BD  3DBD               	addwfc	___flmul@prod+3,f
  5957  01BE                     l1998:
  5958  01BE  3008               	movlw	8
  5959  01BF                     u1565:
  5960  01BF  35B4               	lslf	___flmul@grs,f
  5961  01C0  0DB5               	rlf	___flmul@grs+1,f
  5962  01C1  0DB6               	rlf	___flmul@grs+2,f
  5963  01C2  0DB7               	rlf	___flmul@grs+3,f
  5964  01C3  0B89               	decfsz	9,f
  5965  01C4  29BF               	goto	u1565
  5966  01C5                     l2000:
  5967  01C5  0839               	movf	___flmul@bexp,w
  5968  01C6  0738               	addwf	___flmul@aexp,w
  5969  01C7  00AE               	movwf	??___flmul
  5970  01C8  01AF               	clrf	??___flmul+1
  5971  01C9  0DAF               	rlf	??___flmul+1,f
  5972  01CA  082E               	movf	??___flmul,w
  5973  01CB  3E82               	addlw	130
  5974  01CC  00BE               	movwf	___flmul@temp
  5975  01CD  30FF               	movlw	255
  5976  01CE  3D2F               	addwfc	??___flmul+1,w
  5977  01CF  00BF               	movwf	___flmul@temp+1
  5978  01D0  29E8               	goto	l2012
  5979  01D1                     l2002:
  5980  01D1  3001               	movlw	1
  5981  01D2                     u1575:
  5982  01D2  35BA               	lslf	___flmul@prod,f
  5983  01D3  0DBB               	rlf	___flmul@prod+1,f
  5984  01D4  0DBC               	rlf	___flmul@prod+2,f
  5985  01D5  0DBD               	rlf	___flmul@prod+3,f
  5986  01D6  0B89               	decfsz	9,f
  5987  01D7  29D2               	goto	u1575
  5988  01D8                     l2004:
  5989  01D8  1FB7               	btfss	___flmul@grs+3,7
  5990  01D9  29DB               	goto	u1581
  5991  01DA  29DC               	goto	u1580
  5992  01DB                     u1581:
  5993  01DB  29DD               	goto	l2008
  5994  01DC                     u1580:
  5995  01DC                     l2006:
  5996  01DC  143A               	bsf	___flmul@prod,0
  5997  01DD                     l2008:
  5998  01DD  3001               	movlw	1
  5999  01DE                     u1595:
  6000  01DE  35B4               	lslf	___flmul@grs,f
  6001  01DF  0DB5               	rlf	___flmul@grs+1,f
  6002  01E0  0DB6               	rlf	___flmul@grs+2,f
  6003  01E1  0DB7               	rlf	___flmul@grs+3,f
  6004  01E2  0B89               	decfsz	9,f
  6005  01E3  29DE               	goto	u1595
  6006  01E4                     l2010:
  6007  01E4  30FF               	movlw	255
  6008  01E5  07BE               	addwf	___flmul@temp,f
  6009  01E6  30FF               	movlw	255
  6010  01E7  3DBF               	addwfc	___flmul@temp+1,f
  6011  01E8                     l2012:
  6012  01E8  1FBC               	btfss	___flmul@prod+2,7
  6013  01E9  29EB               	goto	u1601
  6014  01EA  29EC               	goto	u1600
  6015  01EB                     u1601:
  6016  01EB  29D1               	goto	l2002
  6017  01EC                     u1600:
  6018  01EC                     l2014:
  6019  01EC  01B8               	clrf	___flmul@aexp
  6020  01ED                     l2016:
  6021  01ED  1FB7               	btfss	___flmul@grs+3,7
  6022  01EE  29F0               	goto	u1611
  6023  01EF  29F1               	goto	u1610
  6024  01F0                     u1611:
  6025  01F0  2A0D               	goto	l2024
  6026  01F1                     u1610:
  6027  01F1                     l2018:
  6028  01F1  30FF               	movlw	255
  6029  01F2  0534               	andwf	___flmul@grs,w
  6030  01F3  00AE               	movwf	??___flmul
  6031  01F4  30FF               	movlw	255
  6032  01F5  0535               	andwf	___flmul@grs+1,w
  6033  01F6  00AF               	movwf	??___flmul+1
  6034  01F7  30FF               	movlw	255
  6035  01F8  0536               	andwf	___flmul@grs+2,w
  6036  01F9  00B0               	movwf	??___flmul+2
  6037  01FA  307F               	movlw	127
  6038  01FB  0537               	andwf	___flmul@grs+3,w
  6039  01FC  00B1               	movwf	??___flmul+3
  6040  01FD  0831               	movf	??___flmul+3,w
  6041  01FE  0430               	iorwf	??___flmul+2,w
  6042  01FF  042F               	iorwf	??___flmul+1,w
  6043  0200  042E               	iorwf	??___flmul,w
  6044  0201  1903               	skipnz
  6045  0202  2A04               	goto	u1621
  6046  0203  2A05               	goto	u1620
  6047  0204                     u1621:
  6048  0204  2A08               	goto	l947
  6049  0205                     u1620:
  6050  0205                     l2020:
  6051  0205  01B8               	clrf	___flmul@aexp
  6052  0206  0AB8               	incf	___flmul@aexp,f
  6053  0207  2A0D               	goto	l2024
  6054  0208                     l947:
  6055  0208  1C3A               	btfss	___flmul@prod,0
  6056  0209  2A0B               	goto	u1631
  6057  020A  2A0C               	goto	u1630
  6058  020B                     u1631:
  6059  020B  2A0D               	goto	l2024
  6060  020C                     u1630:
  6061  020C  2A05               	goto	l2020
  6062  020D                     l2024:
  6063  020D  0838               	movf	___flmul@aexp,w
  6064  020E  1903               	btfsc	3,2
  6065  020F  2A11               	goto	u1641
  6066  0210  2A12               	goto	u1640
  6067  0211                     u1641:
  6068  0211  2A3A               	goto	l2034
  6069  0212                     u1640:
  6070  0212                     l2026:
  6071  0212  3001               	movlw	1
  6072  0213  07BA               	addwf	___flmul@prod,f
  6073  0214  3000               	movlw	0
  6074  0215  3DBB               	addwfc	___flmul@prod+1,f
  6075  0216  3000               	movlw	0
  6076  0217  3DBC               	addwfc	___flmul@prod+2,f
  6077  0218  3000               	movlw	0
  6078  0219  3DBD               	addwfc	___flmul@prod+3,f
  6079  021A                     l2028:
  6080  021A  1C3D               	btfss	___flmul@prod+3,0
  6081  021B  2A1D               	goto	u1651
  6082  021C  2A1E               	goto	u1650
  6083  021D                     u1651:
  6084  021D  2A3A               	goto	l2034
  6085  021E                     u1650:
  6086  021E                     l2030:
  6087  021E  083A               	movf	___flmul@prod,w
  6088  021F  00AE               	movwf	??___flmul
  6089  0220  083B               	movf	___flmul@prod+1,w
  6090  0221  00AF               	movwf	??___flmul+1
  6091  0222  083C               	movf	___flmul@prod+2,w
  6092  0223  00B0               	movwf	??___flmul+2
  6093  0224  083D               	movf	___flmul@prod+3,w
  6094  0225  00B1               	movwf	??___flmul+3
  6095  0226  3001               	movlw	1
  6096  0227  00B2               	movwf	??___flmul+4
  6097  0228                     u1665:
  6098  0228  37B1               	asrf	??___flmul+3,f
  6099  0229  0CB0               	rrf	??___flmul+2,f
  6100  022A  0CAF               	rrf	??___flmul+1,f
  6101  022B  0CAE               	rrf	??___flmul,f
  6102  022C                     u1660:
  6103  022C  0BB2               	decfsz	??___flmul+4,f
  6104  022D  2A28               	goto	u1665
  6105  022E  0831               	movf	??___flmul+3,w
  6106  022F  00BD               	movwf	___flmul@prod+3
  6107  0230  0830               	movf	??___flmul+2,w
  6108  0231  00BC               	movwf	___flmul@prod+2
  6109  0232  082F               	movf	??___flmul+1,w
  6110  0233  00BB               	movwf	___flmul@prod+1
  6111  0234  082E               	movf	??___flmul,w
  6112  0235  00BA               	movwf	___flmul@prod
  6113  0236                     l2032:
  6114  0236  3001               	movlw	1
  6115  0237  07BE               	addwf	___flmul@temp,f
  6116  0238  3000               	movlw	0
  6117  0239  3DBF               	addwfc	___flmul@temp+1,f
  6118  023A                     l2034:
  6119  023A  083F               	movf	___flmul@temp+1,w
  6120  023B  3A80               	xorlw	128
  6121  023C  00AE               	movwf	??___flmul
  6122  023D  3080               	movlw	128
  6123  023E  022E               	subwf	??___flmul,w
  6124  023F  1D03               	skipz
  6125  0240  2A43               	goto	u1675
  6126  0241  30FF               	movlw	255
  6127  0242  023E               	subwf	___flmul@temp,w
  6128  0243                     u1675:
  6129  0243  1C03               	skipc
  6130  0244  2A46               	goto	u1671
  6131  0245  2A47               	goto	u1670
  6132  0246                     u1671:
  6133  0246  2A51               	goto	l2038
  6134  0247                     u1670:
  6135  0247                     l2036:
  6136  0247  307F               	movlw	127
  6137  0248  0140               	movlb	0	; select bank0
  6138  0249  00BD               	movwf	___flmul@prod+3
  6139  024A  3080               	movlw	128
  6140  024B  00BC               	movwf	___flmul@prod+2
  6141  024C  3000               	movlw	0
  6142  024D  00BB               	movwf	___flmul@prod+1
  6143  024E  3000               	movlw	0
  6144  024F  00BA               	movwf	___flmul@prod
  6145  0250  2A80               	goto	l953
  6146  0251                     l2038:
  6147  0251  0140               	movlb	0	; select bank0
  6148  0252  083F               	movf	___flmul@temp+1,w
  6149  0253  3A80               	xorlw	128
  6150  0254  00AE               	movwf	??___flmul
  6151  0255  3080               	movlw	128
  6152  0256  022E               	subwf	??___flmul,w
  6153  0257  1D03               	skipz
  6154  0258  2A5B               	goto	u1685
  6155  0259  3001               	movlw	1
  6156  025A  023E               	subwf	___flmul@temp,w
  6157  025B                     u1685:
  6158  025B  1803               	skipnc
  6159  025C  2A5E               	goto	u1681
  6160  025D  2A5F               	goto	u1680
  6161  025E                     u1681:
  6162  025E  2A6A               	goto	l2044
  6163  025F                     u1680:
  6164  025F                     l2040:
  6165  025F  3000               	movlw	0
  6166  0260  0140               	movlb	0	; select bank0
  6167  0261  00BD               	movwf	___flmul@prod+3
  6168  0262  3000               	movlw	0
  6169  0263  00BC               	movwf	___flmul@prod+2
  6170  0264  3000               	movlw	0
  6171  0265  00BB               	movwf	___flmul@prod+1
  6172  0266  3000               	movlw	0
  6173  0267  00BA               	movwf	___flmul@prod
  6174  0268                     l2042:
  6175  0268  01B3               	clrf	___flmul@sign
  6176  0269  2A80               	goto	l953
  6177  026A                     l2044:
  6178  026A  0140               	movlb	0	; select bank0
  6179  026B  083E               	movf	___flmul@temp,w
  6180  026C  00AE               	movwf	??___flmul
  6181  026D  082E               	movf	??___flmul,w
  6182  026E  00B9               	movwf	___flmul@bexp
  6183  026F  30FF               	movlw	255
  6184  0270  05BA               	andwf	___flmul@prod,f
  6185  0271  30FF               	movlw	255
  6186  0272  05BB               	andwf	___flmul@prod+1,f
  6187  0273  307F               	movlw	127
  6188  0274  05BC               	andwf	___flmul@prod+2,f
  6189  0275  3000               	movlw	0
  6190  0276  05BD               	andwf	___flmul@prod+3,f
  6191  0277                     l2046:
  6192  0277  1C39               	btfss	___flmul@bexp,0
  6193  0278  2A7A               	goto	u1691
  6194  0279  2A7B               	goto	u1690
  6195  027A                     u1691:
  6196  027A  2A7C               	goto	l2050
  6197  027B                     u1690:
  6198  027B                     l2048:
  6199  027B  17BC               	bsf	___flmul@prod+2,7
  6200  027C                     l2050:
  6201  027C  3639               	lsrf	___flmul@bexp,w
  6202  027D  00AE               	movwf	??___flmul
  6203  027E  082E               	movf	??___flmul,w
  6204  027F  00BD               	movwf	___flmul@prod+3
  6205  0280                     l953:
  6206  0280  0833               	movf	___flmul@sign,w
  6207  0281  00AE               	movwf	??___flmul
  6208  0282  082E               	movf	??___flmul,w
  6209  0283  04BD               	iorwf	___flmul@prod+3,f
  6210  0284                     l2052:
  6211  0284  083D               	movf	___flmul@prod+3,w
  6212  0285  00A9               	movwf	?___flmul+3
  6213  0286  083C               	movf	___flmul@prod+2,w
  6214  0287  00A8               	movwf	?___flmul+2
  6215  0288  083B               	movf	___flmul@prod+1,w
  6216  0289  00A7               	movwf	?___flmul+1
  6217  028A  083A               	movf	___flmul@prod,w
  6218  028B  00A6               	movwf	?___flmul
  6219  028C                     l941:
  6220  028C  0008               	return
  6221  028D                     __end_of___flmul:
  6222                           
  6223                           	psect	text12
  6224  076F                     __ptext12:	
  6225 ;; *************** function __Umul8_16 *****************
  6226 ;; Defined at:
  6227 ;;		line 4 in file "D:\Study\Microchip\xc8\v2.32\pic\sources\c99\common\Umul8_16.c"
  6228 ;; Parameters:    Size  Location     Type
  6229 ;;  multiplier      1    wreg     unsigned char 
  6230 ;;  multiplicand    1    1[COMMON] unsigned char 
  6231 ;; Auto vars:     Size  Location     Type
  6232 ;;  multiplier      1    9[COMMON] unsigned char 
  6233 ;;  word_mpld       2    7[COMMON] unsigned int 
  6234 ;;  product         2    5[COMMON] unsigned int 
  6235 ;; Return value:  Size  Location     Type
  6236 ;;                  2    1[COMMON] unsigned int 
  6237 ;; Registers used:
  6238 ;;		wreg, status,2, status,0
  6239 ;; Tracked objects:
  6240 ;;		On entry : 0/0
  6241 ;;		On exit  : 0/0
  6242 ;;		Unchanged: 0/0
  6243 ;; Data sizes:     COMMON   BANK0   BANK1   BANK2   BANK3   BANK4   BANK5   BANK6   BANK7   BANK8   BANK9  BANK10  BANK1
      +1  BANK12  BANK13  BANK14  BANK15  BANK16  BANK17  BANK18  BANK19  BANK20  BANK21  BANK22  BANK23  BANK24  BANK25  BANK2
      +6  BANK27  BANK28  BANK29  BANK30  BANK31  BANK32  BANK33  BANK34  BANK35  BANK36  BANK37  BANK38  BANK39  BANK40  BANK4
      +1  BANK42  BANK43  BANK44  BANK45  BANK46  BANK47  BANK48  BANK49  BANK50
  6244 ;;      Params:         2       0       0       0       0       0       0       0       0       0       0       0       
      +0       0       0       0       0       0       0       0       0       0       0       0       0       0       0       
      +0       0       0       0       0       0       0       0       0       0       0       0       0       0       0       
      +0       0       0       0       0       0       0       0       0       0
  6245 ;;      Locals:         5       0       0       0       0       0       0       0       0       0       0       0       
      +0       0       0       0       0       0       0       0       0       0       0       0       0       0       0       
      +0       0       0       0       0       0       0       0       0       0       0       0       0       0       0       
      +0       0       0       0       0       0       0       0       0       0
  6246 ;;      Temps:          2       0       0       0       0       0       0       0       0       0       0       0       
      +0       0       0       0       0       0       0       0       0       0       0       0       0       0       0       
      +0       0       0       0       0       0       0       0       0       0       0       0       0       0       0       
      +0       0       0       0       0       0       0       0       0       0
  6247 ;;      Totals:         9       0       0       0       0       0       0       0       0       0       0       0       
      +0       0       0       0       0       0       0       0       0       0       0       0       0       0       0       
      +0       0       0       0       0       0       0       0       0       0       0       0       0       0       0       
      +0       0       0       0       0       0       0       0       0       0
  6248 ;;Total ram usage:        9 bytes
  6249 ;; Hardware stack levels used: 1
  6250 ;; Hardware stack levels required when called: 1
  6251 ;; This function calls:
  6252 ;;		Nothing
  6253 ;; This function is called by:
  6254 ;;		___flmul
  6255 ;; This function uses a non-reentrant model
  6256 ;;
  6257                           
  6258                           
  6259                           ;psect for function __Umul8_16
  6260  076F                     __Umul8_16:
  6261                           
  6262                           ;incstack = 0
  6263                           ; Regs used in __Umul8_16: [wreg+status,2+status,0]
  6264                           ;__Umul8_16@multiplier stored from wreg
  6265  076F  00F9               	movwf	__Umul8_16@multiplier
  6266  0770                     l1768:
  6267  0770  01F5               	clrf	__Umul8_16@product
  6268  0771  01F6               	clrf	__Umul8_16@product+1
  6269  0772                     l1770:
  6270  0772  0871               	movf	__Umul8_16@multiplicand,w
  6271  0773  00F3               	movwf	??__Umul8_16
  6272  0774  01F4               	clrf	??__Umul8_16+1
  6273  0775  0873               	movf	??__Umul8_16,w
  6274  0776  00F7               	movwf	__Umul8_16@word_mpld
  6275  0777  0874               	movf	??__Umul8_16+1,w
  6276  0778  00F8               	movwf	__Umul8_16@word_mpld+1
  6277  0779                     l1772:
  6278  0779  1C79               	btfss	__Umul8_16@multiplier,0
  6279  077A  2F7C               	goto	u1171
  6280  077B  2F7D               	goto	u1170
  6281  077C                     u1171:
  6282  077C  2F81               	goto	l960
  6283  077D                     u1170:
  6284  077D                     l1774:
  6285  077D  0877               	movf	__Umul8_16@word_mpld,w
  6286  077E  07F5               	addwf	__Umul8_16@product,f
  6287  077F  0878               	movf	__Umul8_16@word_mpld+1,w
  6288  0780  3DF6               	addwfc	__Umul8_16@product+1,f
  6289  0781                     l960:
  6290  0781  3001               	movlw	1
  6291  0782                     u1185:
  6292  0782  35F7               	lslf	__Umul8_16@word_mpld,f
  6293  0783  0DF8               	rlf	__Umul8_16@word_mpld+1,f
  6294  0784  0B89               	decfsz	9,f
  6295  0785  2F82               	goto	u1185
  6296  0786  1003               	clrc
  6297  0787  0CF9               	rrf	__Umul8_16@multiplier,f
  6298  0788                     l1776:
  6299  0788  0879               	movf	__Umul8_16@multiplier,w
  6300  0789  1D03               	btfss	3,2
  6301  078A  2F8C               	goto	u1191
  6302  078B  2F8D               	goto	u1190
  6303  078C                     u1191:
  6304  078C  2F79               	goto	l1772
  6305  078D                     u1190:
  6306  078D                     l1778:
  6307  078D  0876               	movf	__Umul8_16@product+1,w
  6308  078E  00F2               	movwf	?__Umul8_16+1
  6309  078F  0875               	movf	__Umul8_16@product,w
  6310  0790  00F1               	movwf	?__Umul8_16
  6311  0791                     l962:
  6312  0791  0008               	return
  6313  0792                     __end_of__Umul8_16:
  6314                           
  6315                           	psect	text13
  6316  0FF3                     __ptext13:	
  6317 ;; *************** function _SYSTEM_Initialize *****************
  6318 ;; Defined at:
  6319 ;;		line 50 in file "mcc_generated_files/mcc.c"
  6320 ;; Parameters:    Size  Location     Type
  6321 ;;		None
  6322 ;; Auto vars:     Size  Location     Type
  6323 ;;		None
  6324 ;; Return value:  Size  Location     Type
  6325 ;;                  1    wreg      void 
  6326 ;; Registers used:
  6327 ;;		wreg, status,2, status,0, pclath, cstack
  6328 ;; Tracked objects:
  6329 ;;		On entry : 0/0
  6330 ;;		On exit  : 0/0
  6331 ;;		Unchanged: 0/0
  6332 ;; Data sizes:     COMMON   BANK0   BANK1   BANK2   BANK3   BANK4   BANK5   BANK6   BANK7   BANK8   BANK9  BANK10  BANK1
      +1  BANK12  BANK13  BANK14  BANK15  BANK16  BANK17  BANK18  BANK19  BANK20  BANK21  BANK22  BANK23  BANK24  BANK25  BANK2
      +6  BANK27  BANK28  BANK29  BANK30  BANK31  BANK32  BANK33  BANK34  BANK35  BANK36  BANK37  BANK38  BANK39  BANK40  BANK4
      +1  BANK42  BANK43  BANK44  BANK45  BANK46  BANK47  BANK48  BANK49  BANK50
  6333 ;;      Params:         0       0       0       0       0       0       0       0       0       0       0       0       
      +0       0       0       0       0       0       0       0       0       0       0       0       0       0       0       
      +0       0       0       0       0       0       0       0       0       0       0       0       0       0       0       
      +0       0       0       0       0       0       0       0       0       0
  6334 ;;      Locals:         0       0       0       0       0       0       0       0       0       0       0       0       
      +0       0       0       0       0       0       0       0       0       0       0       0       0       0       0       
      +0       0       0       0       0       0       0       0       0       0       0       0       0       0       0       
      +0       0       0       0       0       0       0       0       0       0
  6335 ;;      Temps:          0       0       0       0       0       0       0       0       0       0       0       0       
      +0       0       0       0       0       0       0       0       0       0       0       0       0       0       0       
      +0       0       0       0       0       0       0       0       0       0       0       0       0       0       0       
      +0       0       0       0       0       0       0       0       0       0
  6336 ;;      Totals:         0       0       0       0       0       0       0       0       0       0       0       0       
      +0       0       0       0       0       0       0       0       0       0       0       0       0       0       0       
      +0       0       0       0       0       0       0       0       0       0       0       0       0       0       0       
      +0       0       0       0       0       0       0       0       0       0
  6337 ;;Total ram usage:        0 bytes
  6338 ;; Hardware stack levels used: 1
  6339 ;; Hardware stack levels required when called: 2
  6340 ;; This function calls:
  6341 ;;		_ADCC_Initialize
  6342 ;;		_OSCILLATOR_Initialize
  6343 ;;		_PIN_MANAGER_Initialize
  6344 ;;		_PMD_Initialize
  6345 ;; This function is called by:
  6346 ;;		_main
  6347 ;; This function uses a non-reentrant model
  6348 ;;
  6349                           
  6350                           
  6351                           ;psect for function _SYSTEM_Initialize
  6352  0FF3                     _SYSTEM_Initialize:
  6353  0FF3                     l1782:	
  6354                           ;incstack = 0
  6355                           ; Regs used in _SYSTEM_Initialize: [wreg+status,2+status,0+pclath+cstack]
  6356                           
  6357                           
  6358                           ;mcc_generated_files/mcc.c: 52:     PMD_Initialize();
  6359  0FF3  318F  27E2  318F   	fcall	_PMD_Initialize
  6360  0FF6                     l1784:
  6361                           
  6362                           ;mcc_generated_files/mcc.c: 53:     PIN_MANAGER_Initialize();
  6363  0FF6  3186  26A5  318F   	fcall	_PIN_MANAGER_Initialize
  6364  0FF9                     l1786:
  6365                           
  6366                           ;mcc_generated_files/mcc.c: 54:     OSCILLATOR_Initialize();
  6367  0FF9  318F  27EA  318F   	fcall	_OSCILLATOR_Initialize
  6368  0FFC                     l1788:
  6369                           
  6370                           ;mcc_generated_files/mcc.c: 55:     ADCC_Initialize();
  6371  0FFC  3187  27B2  318F   	fcall	_ADCC_Initialize
  6372  0FFF                     l109:
  6373  0FFF  0008               	return
  6374  1000                     __end_of_SYSTEM_Initialize:
  6375                           
  6376                           	psect	text14
  6377  0FE2                     __ptext14:	
  6378 ;; *************** function _PMD_Initialize *****************
  6379 ;; Defined at:
  6380 ;;		line 72 in file "mcc_generated_files/mcc.c"
  6381 ;; Parameters:    Size  Location     Type
  6382 ;;		None
  6383 ;; Auto vars:     Size  Location     Type
  6384 ;;		None
  6385 ;; Return value:  Size  Location     Type
  6386 ;;                  1    wreg      void 
  6387 ;; Registers used:
  6388 ;;		status,2
  6389 ;; Tracked objects:
  6390 ;;		On entry : 0/0
  6391 ;;		On exit  : 0/0
  6392 ;;		Unchanged: 0/0
  6393 ;; Data sizes:     COMMON   BANK0   BANK1   BANK2   BANK3   BANK4   BANK5   BANK6   BANK7   BANK8   BANK9  BANK10  BANK1
      +1  BANK12  BANK13  BANK14  BANK15  BANK16  BANK17  BANK18  BANK19  BANK20  BANK21  BANK22  BANK23  BANK24  BANK25  BANK2
      +6  BANK27  BANK28  BANK29  BANK30  BANK31  BANK32  BANK33  BANK34  BANK35  BANK36  BANK37  BANK38  BANK39  BANK40  BANK4
      +1  BANK42  BANK43  BANK44  BANK45  BANK46  BANK47  BANK48  BANK49  BANK50
  6394 ;;      Params:         0       0       0       0       0       0       0       0       0       0       0       0       
      +0       0       0       0       0       0       0       0       0       0       0       0       0       0       0       
      +0       0       0       0       0       0       0       0       0       0       0       0       0       0       0       
      +0       0       0       0       0       0       0       0       0       0
  6395 ;;      Locals:         0       0       0       0       0       0       0       0       0       0       0       0       
      +0       0       0       0       0       0       0       0       0       0       0       0       0       0       0       
      +0       0       0       0       0       0       0       0       0       0       0       0       0       0       0       
      +0       0       0       0       0       0       0       0       0       0
  6396 ;;      Temps:          0       0       0       0       0       0       0       0       0       0       0       0       
      +0       0       0       0       0       0       0       0       0       0       0       0       0       0       0       
      +0       0       0       0       0       0       0       0       0       0       0       0       0       0       0       
      +0       0       0       0       0       0       0       0       0       0
  6397 ;;      Totals:         0       0       0       0       0       0       0       0       0       0       0       0       
      +0       0       0       0       0       0       0       0       0       0       0       0       0       0       0       
      +0       0       0       0       0       0       0       0       0       0       0       0       0       0       0       
      +0       0       0       0       0       0       0       0       0       0
  6398 ;;Total ram usage:        0 bytes
  6399 ;; Hardware stack levels used: 1
  6400 ;; Hardware stack levels required when called: 1
  6401 ;; This function calls:
  6402 ;;		Nothing
  6403 ;; This function is called by:
  6404 ;;		_SYSTEM_Initialize
  6405 ;; This function uses a non-reentrant model
  6406 ;;
  6407                           
  6408                           
  6409                           ;psect for function _PMD_Initialize
  6410  0FE2                     _PMD_Initialize:
  6411  0FE2                     l1684:	
  6412                           ;incstack = 0
  6413                           ; Regs used in _PMD_Initialize: [status,2]
  6414                           
  6415                           
  6416                           ;mcc_generated_files/mcc.c: 75:     PMD0 = 0x00;
  6417  0FE2  014F               	movlb	15	; select bank15
  6418  0FE3  0196               	clrf	22	;volatile
  6419                           
  6420                           ;mcc_generated_files/mcc.c: 77:     PMD1 = 0x00;
  6421  0FE4  0197               	clrf	23	;volatile
  6422                           
  6423                           ;mcc_generated_files/mcc.c: 79:     PMD2 = 0x00;
  6424  0FE5  0198               	clrf	24	;volatile
  6425                           
  6426                           ;mcc_generated_files/mcc.c: 81:     PMD3 = 0x00;
  6427  0FE6  0199               	clrf	25	;volatile
  6428                           
  6429                           ;mcc_generated_files/mcc.c: 83:     PMD4 = 0x00;
  6430  0FE7  019A               	clrf	26	;volatile
  6431                           
  6432                           ;mcc_generated_files/mcc.c: 85:     PMD5 = 0x00;
  6433  0FE8  019B               	clrf	27	;volatile
  6434  0FE9                     l115:
  6435  0FE9  0008               	return
  6436  0FEA                     __end_of_PMD_Initialize:
  6437                           
  6438                           	psect	text15
  6439  06A5                     __ptext15:	
  6440 ;; *************** function _PIN_MANAGER_Initialize *****************
  6441 ;; Defined at:
  6442 ;;		line 55 in file "mcc_generated_files/pin_manager.c"
  6443 ;; Parameters:    Size  Location     Type
  6444 ;;		None
  6445 ;; Auto vars:     Size  Location     Type
  6446 ;;		None
  6447 ;; Return value:  Size  Location     Type
  6448 ;;                  1    wreg      void 
  6449 ;; Registers used:
  6450 ;;		wreg, status,2
  6451 ;; Tracked objects:
  6452 ;;		On entry : 0/0
  6453 ;;		On exit  : 0/0
  6454 ;;		Unchanged: 0/0
  6455 ;; Data sizes:     COMMON   BANK0   BANK1   BANK2   BANK3   BANK4   BANK5   BANK6   BANK7   BANK8   BANK9  BANK10  BANK1
      +1  BANK12  BANK13  BANK14  BANK15  BANK16  BANK17  BANK18  BANK19  BANK20  BANK21  BANK22  BANK23  BANK24  BANK25  BANK2
      +6  BANK27  BANK28  BANK29  BANK30  BANK31  BANK32  BANK33  BANK34  BANK35  BANK36  BANK37  BANK38  BANK39  BANK40  BANK4
      +1  BANK42  BANK43  BANK44  BANK45  BANK46  BANK47  BANK48  BANK49  BANK50
  6456 ;;      Params:         0       0       0       0       0       0       0       0       0       0       0       0       
      +0       0       0       0       0       0       0       0       0       0       0       0       0       0       0       
      +0       0       0       0       0       0       0       0       0       0       0       0       0       0       0       
      +0       0       0       0       0       0       0       0       0       0
  6457 ;;      Locals:         0       0       0       0       0       0       0       0       0       0       0       0       
      +0       0       0       0       0       0       0       0       0       0       0       0       0       0       0       
      +0       0       0       0       0       0       0       0       0       0       0       0       0       0       0       
      +0       0       0       0       0       0       0       0       0       0
  6458 ;;      Temps:          0       0       0       0       0       0       0       0       0       0       0       0       
      +0       0       0       0       0       0       0       0       0       0       0       0       0       0       0       
      +0       0       0       0       0       0       0       0       0       0       0       0       0       0       0       
      +0       0       0       0       0       0       0       0       0       0
  6459 ;;      Totals:         0       0       0       0       0       0       0       0       0       0       0       0       
      +0       0       0       0       0       0       0       0       0       0       0       0       0       0       0       
      +0       0       0       0       0       0       0       0       0       0       0       0       0       0       0       
      +0       0       0       0       0       0       0       0       0       0
  6460 ;;Total ram usage:        0 bytes
  6461 ;; Hardware stack levels used: 1
  6462 ;; Hardware stack levels required when called: 1
  6463 ;; This function calls:
  6464 ;;		Nothing
  6465 ;; This function is called by:
  6466 ;;		_SYSTEM_Initialize
  6467 ;; This function uses a non-reentrant model
  6468 ;;
  6469                           
  6470                           
  6471                           ;psect for function _PIN_MANAGER_Initialize
  6472  06A5                     _PIN_MANAGER_Initialize:
  6473  06A5                     l1650:	
  6474                           ;incstack = 0
  6475                           ; Regs used in _PIN_MANAGER_Initialize: [wreg+status,2]
  6476                           
  6477                           
  6478                           ;mcc_generated_files/pin_manager.c: 60:     LATE = 0x00;
  6479  06A5  0140               	movlb	0	; select bank0
  6480  06A6  019A               	clrf	26	;volatile
  6481                           
  6482                           ;mcc_generated_files/pin_manager.c: 61:     LATD = 0x00;
  6483  06A7  0199               	clrf	25	;volatile
  6484                           
  6485                           ;mcc_generated_files/pin_manager.c: 62:     LATA = 0x00;
  6486  06A8  0196               	clrf	22	;volatile
  6487                           
  6488                           ;mcc_generated_files/pin_manager.c: 63:     LATB = 0x00;
  6489  06A9  0197               	clrf	23	;volatile
  6490                           
  6491                           ;mcc_generated_files/pin_manager.c: 64:     LATC = 0x00;
  6492  06AA  0198               	clrf	24	;volatile
  6493  06AB                     l1652:
  6494                           
  6495                           ;mcc_generated_files/pin_manager.c: 69:     TRISE = 0x04;
  6496  06AB  3004               	movlw	4
  6497  06AC  0095               	movwf	21	;volatile
  6498  06AD                     l1654:
  6499                           
  6500                           ;mcc_generated_files/pin_manager.c: 70:     TRISA = 0xFF;
  6501  06AD  30FF               	movlw	255
  6502  06AE  0091               	movwf	17	;volatile
  6503  06AF                     l1656:
  6504                           
  6505                           ;mcc_generated_files/pin_manager.c: 71:     TRISB = 0xD7;
  6506  06AF  30D7               	movlw	215
  6507  06B0  0092               	movwf	18	;volatile
  6508  06B1                     l1658:
  6509                           
  6510                           ;mcc_generated_files/pin_manager.c: 72:     TRISC = 0xFF;
  6511  06B1  30FF               	movlw	255
  6512  06B2  0093               	movwf	19	;volatile
  6513                           
  6514                           ;mcc_generated_files/pin_manager.c: 73:     TRISD = 0x00;
  6515  06B3  0194               	clrf	20	;volatile
  6516                           
  6517                           ;mcc_generated_files/pin_manager.c: 78:     ANSELD = 0x00;
  6518  06B4  017E               	movlb	62	; select bank62
  6519  06B5  01D9               	clrf	89	;volatile
  6520  06B6                     l1660:
  6521                           
  6522                           ;mcc_generated_files/pin_manager.c: 79:     ANSELC = 0xFF;
  6523  06B6  30FF               	movlw	255
  6524  06B7  00CE               	movwf	78	;volatile
  6525  06B8                     l1662:
  6526                           
  6527                           ;mcc_generated_files/pin_manager.c: 80:     ANSELB = 0x02;
  6528  06B8  3002               	movlw	2
  6529  06B9  00C3               	movwf	67	;volatile
  6530  06BA                     l1664:
  6531                           
  6532                           ;mcc_generated_files/pin_manager.c: 81:     ANSELE = 0x04;
  6533  06BA  3004               	movlw	4
  6534  06BB  00E4               	movwf	100	;volatile
  6535  06BC                     l1666:
  6536                           
  6537                           ;mcc_generated_files/pin_manager.c: 82:     ANSELA = 0xFF;
  6538  06BC  30FF               	movlw	255
  6539  06BD  00B8               	movwf	56	;volatile
  6540                           
  6541                           ;mcc_generated_files/pin_manager.c: 87:     WPUD = 0x00;
  6542  06BE  01DA               	clrf	90	;volatile
  6543                           
  6544                           ;mcc_generated_files/pin_manager.c: 88:     WPUE = 0x00;
  6545  06BF  01E5               	clrf	101	;volatile
  6546  06C0                     l1668:
  6547                           
  6548                           ;mcc_generated_files/pin_manager.c: 89:     WPUB = 0x13;
  6549  06C0  3013               	movlw	19
  6550  06C1  00C4               	movwf	68	;volatile
  6551  06C2                     l1670:
  6552                           
  6553                           ;mcc_generated_files/pin_manager.c: 90:     WPUA = 0x00;
  6554  06C2  01B9               	clrf	57	;volatile
  6555  06C3                     l1672:
  6556                           
  6557                           ;mcc_generated_files/pin_manager.c: 91:     WPUC = 0x00;
  6558  06C3  01CF               	clrf	79	;volatile
  6559  06C4                     l1674:
  6560                           
  6561                           ;mcc_generated_files/pin_manager.c: 96:     ODCONE = 0x00;
  6562  06C4  01E6               	clrf	102	;volatile
  6563  06C5                     l1676:
  6564                           
  6565                           ;mcc_generated_files/pin_manager.c: 97:     ODCONA = 0x00;
  6566  06C5  01BA               	clrf	58	;volatile
  6567  06C6                     l1678:
  6568                           
  6569                           ;mcc_generated_files/pin_manager.c: 98:     ODCONB = 0x00;
  6570  06C6  01C5               	clrf	69	;volatile
  6571  06C7                     l1680:
  6572                           
  6573                           ;mcc_generated_files/pin_manager.c: 99:     ODCONC = 0x00;
  6574  06C7  01D0               	clrf	80	;volatile
  6575  06C8                     l1682:
  6576                           
  6577                           ;mcc_generated_files/pin_manager.c: 100:     ODCOND = 0x00;
  6578  06C8  01DB               	clrf	91	;volatile
  6579                           
  6580                           ;mcc_generated_files/pin_manager.c: 105:     SLRCONA = 0xFF;
  6581  06C9  30FF               	movlw	255
  6582  06CA  00BB               	movwf	59	;volatile
  6583                           
  6584                           ;mcc_generated_files/pin_manager.c: 106:     SLRCONB = 0xFF;
  6585  06CB  30FF               	movlw	255
  6586  06CC  00C6               	movwf	70	;volatile
  6587                           
  6588                           ;mcc_generated_files/pin_manager.c: 107:     SLRCONC = 0xFF;
  6589  06CD  30FF               	movlw	255
  6590  06CE  00D1               	movwf	81	;volatile
  6591                           
  6592                           ;mcc_generated_files/pin_manager.c: 108:     SLRCOND = 0xFF;
  6593  06CF  30FF               	movlw	255
  6594  06D0  00DC               	movwf	92	;volatile
  6595                           
  6596                           ;mcc_generated_files/pin_manager.c: 109:     SLRCONE = 0x07;
  6597  06D1  3007               	movlw	7
  6598  06D2  00E7               	movwf	103	;volatile
  6599                           
  6600                           ;mcc_generated_files/pin_manager.c: 114:     INLVLA = 0xFF;
  6601  06D3  30FF               	movlw	255
  6602  06D4  00BC               	movwf	60	;volatile
  6603                           
  6604                           ;mcc_generated_files/pin_manager.c: 115:     INLVLB = 0xFF;
  6605  06D5  30FF               	movlw	255
  6606  06D6  00C7               	movwf	71	;volatile
  6607                           
  6608                           ;mcc_generated_files/pin_manager.c: 116:     INLVLC = 0xFF;
  6609  06D7  30FF               	movlw	255
  6610  06D8  00D2               	movwf	82	;volatile
  6611                           
  6612                           ;mcc_generated_files/pin_manager.c: 117:     INLVLD = 0xFF;
  6613  06D9  30FF               	movlw	255
  6614  06DA  00DD               	movwf	93	;volatile
  6615                           
  6616                           ;mcc_generated_files/pin_manager.c: 118:     INLVLE = 0x0F;
  6617  06DB  300F               	movlw	15
  6618  06DC  00E8               	movwf	104	;volatile
  6619  06DD                     l73:
  6620  06DD  0008               	return
  6621  06DE                     __end_of_PIN_MANAGER_Initialize:
  6622                           
  6623                           	psect	text16
  6624  0FEA                     __ptext16:	
  6625 ;; *************** function _OSCILLATOR_Initialize *****************
  6626 ;; Defined at:
  6627 ;;		line 58 in file "mcc_generated_files/mcc.c"
  6628 ;; Parameters:    Size  Location     Type
  6629 ;;		None
  6630 ;; Auto vars:     Size  Location     Type
  6631 ;;		None
  6632 ;; Return value:  Size  Location     Type
  6633 ;;                  1    wreg      void 
  6634 ;; Registers used:
  6635 ;;		wreg, status,2
  6636 ;; Tracked objects:
  6637 ;;		On entry : 0/0
  6638 ;;		On exit  : 0/0
  6639 ;;		Unchanged: 0/0
  6640 ;; Data sizes:     COMMON   BANK0   BANK1   BANK2   BANK3   BANK4   BANK5   BANK6   BANK7   BANK8   BANK9  BANK10  BANK1
      +1  BANK12  BANK13  BANK14  BANK15  BANK16  BANK17  BANK18  BANK19  BANK20  BANK21  BANK22  BANK23  BANK24  BANK25  BANK2
      +6  BANK27  BANK28  BANK29  BANK30  BANK31  BANK32  BANK33  BANK34  BANK35  BANK36  BANK37  BANK38  BANK39  BANK40  BANK4
      +1  BANK42  BANK43  BANK44  BANK45  BANK46  BANK47  BANK48  BANK49  BANK50
  6641 ;;      Params:         0       0       0       0       0       0       0       0       0       0       0       0       
      +0       0       0       0       0       0       0       0       0       0       0       0       0       0       0       
      +0       0       0       0       0       0       0       0       0       0       0       0       0       0       0       
      +0       0       0       0       0       0       0       0       0       0
  6642 ;;      Locals:         0       0       0       0       0       0       0       0       0       0       0       0       
      +0       0       0       0       0       0       0       0       0       0       0       0       0       0       0       
      +0       0       0       0       0       0       0       0       0       0       0       0       0       0       0       
      +0       0       0       0       0       0       0       0       0       0
  6643 ;;      Temps:          0       0       0       0       0       0       0       0       0       0       0       0       
      +0       0       0       0       0       0       0       0       0       0       0       0       0       0       0       
      +0       0       0       0       0       0       0       0       0       0       0       0       0       0       0       
      +0       0       0       0       0       0       0       0       0       0
  6644 ;;      Totals:         0       0       0       0       0       0       0       0       0       0       0       0       
      +0       0       0       0       0       0       0       0       0       0       0       0       0       0       0       
      +0       0       0       0       0       0       0       0       0       0       0       0       0       0       0       
      +0       0       0       0       0       0       0       0       0       0
  6645 ;;Total ram usage:        0 bytes
  6646 ;; Hardware stack levels used: 1
  6647 ;; Hardware stack levels required when called: 1
  6648 ;; This function calls:
  6649 ;;		Nothing
  6650 ;; This function is called by:
  6651 ;;		_SYSTEM_Initialize
  6652 ;; This function uses a non-reentrant model
  6653 ;;
  6654                           
  6655                           
  6656                           ;psect for function _OSCILLATOR_Initialize
  6657  0FEA                     _OSCILLATOR_Initialize:
  6658  0FEA                     l1686:	
  6659                           ;incstack = 0
  6660                           ; Regs used in _OSCILLATOR_Initialize: [wreg+status,2]
  6661                           
  6662                           
  6663                           ;mcc_generated_files/mcc.c: 61:     OSCCON1 = 0x62;
  6664  0FEA  3062               	movlw	98
  6665  0FEB  0151               	movlb	17	; select bank17
  6666  0FEC  008D               	movwf	13	;volatile
  6667  0FED                     l1688:
  6668                           
  6669                           ;mcc_generated_files/mcc.c: 63:     OSCCON3 = 0x00;
  6670  0FED  018F               	clrf	15	;volatile
  6671  0FEE                     l1690:
  6672                           
  6673                           ;mcc_generated_files/mcc.c: 65:     OSCEN = 0x00;
  6674  0FEE  0191               	clrf	17	;volatile
  6675                           
  6676                           ;mcc_generated_files/mcc.c: 67:     OSCFRQ = 0x02;
  6677  0FEF  3002               	movlw	2
  6678  0FF0  0093               	movwf	19	;volatile
  6679  0FF1                     l1692:
  6680                           
  6681                           ;mcc_generated_files/mcc.c: 69:     OSCTUNE = 0x00;
  6682  0FF1  0192               	clrf	18	;volatile
  6683  0FF2                     l112:
  6684  0FF2  0008               	return
  6685  0FF3                     __end_of_OSCILLATOR_Initialize:
  6686                           
  6687                           	psect	text17
  6688  07B2                     __ptext17:	
  6689 ;; *************** function _ADCC_Initialize *****************
  6690 ;; Defined at:
  6691 ;;		line 63 in file "mcc_generated_files/adcc.c"
  6692 ;; Parameters:    Size  Location     Type
  6693 ;;		None
  6694 ;; Auto vars:     Size  Location     Type
  6695 ;;		None
  6696 ;; Return value:  Size  Location     Type
  6697 ;;                  1    wreg      void 
  6698 ;; Registers used:
  6699 ;;		wreg, status,2
  6700 ;; Tracked objects:
  6701 ;;		On entry : 0/0
  6702 ;;		On exit  : 0/0
  6703 ;;		Unchanged: 0/0
  6704 ;; Data sizes:     COMMON   BANK0   BANK1   BANK2   BANK3   BANK4   BANK5   BANK6   BANK7   BANK8   BANK9  BANK10  BANK1
      +1  BANK12  BANK13  BANK14  BANK15  BANK16  BANK17  BANK18  BANK19  BANK20  BANK21  BANK22  BANK23  BANK24  BANK25  BANK2
      +6  BANK27  BANK28  BANK29  BANK30  BANK31  BANK32  BANK33  BANK34  BANK35  BANK36  BANK37  BANK38  BANK39  BANK40  BANK4
      +1  BANK42  BANK43  BANK44  BANK45  BANK46  BANK47  BANK48  BANK49  BANK50
  6705 ;;      Params:         0       0       0       0       0       0       0       0       0       0       0       0       
      +0       0       0       0       0       0       0       0       0       0       0       0       0       0       0       
      +0       0       0       0       0       0       0       0       0       0       0       0       0       0       0       
      +0       0       0       0       0       0       0       0       0       0
  6706 ;;      Locals:         0       0       0       0       0       0       0       0       0       0       0       0       
      +0       0       0       0       0       0       0       0       0       0       0       0       0       0       0       
      +0       0       0       0       0       0       0       0       0       0       0       0       0       0       0       
      +0       0       0       0       0       0       0       0       0       0
  6707 ;;      Temps:          0       0       0       0       0       0       0       0       0       0       0       0       
      +0       0       0       0       0       0       0       0       0       0       0       0       0       0       0       
      +0       0       0       0       0       0       0       0       0       0       0       0       0       0       0       
      +0       0       0       0       0       0       0       0       0       0
  6708 ;;      Totals:         0       0       0       0       0       0       0       0       0       0       0       0       
      +0       0       0       0       0       0       0       0       0       0       0       0       0       0       0       
      +0       0       0       0       0       0       0       0       0       0       0       0       0       0       0       
      +0       0       0       0       0       0       0       0       0       0
  6709 ;;Total ram usage:        0 bytes
  6710 ;; Hardware stack levels used: 1
  6711 ;; Hardware stack levels required when called: 1
  6712 ;; This function calls:
  6713 ;;		Nothing
  6714 ;; This function is called by:
  6715 ;;		_SYSTEM_Initialize
  6716 ;; This function uses a non-reentrant model
  6717 ;;
  6718                           
  6719                           
  6720                           ;psect for function _ADCC_Initialize
  6721  07B2                     _ADCC_Initialize:
  6722  07B2                     l1694:	
  6723                           ;incstack = 0
  6724                           ; Regs used in _ADCC_Initialize: [wreg+status,2]
  6725                           
  6726                           
  6727                           ;mcc_generated_files/adcc.c: 67:     ADLTHL = 0x00;
  6728  07B2  0142               	movlb	2	; select bank2
  6729  07B3  018E               	clrf	14	;volatile
  6730                           
  6731                           ;mcc_generated_files/adcc.c: 69:     ADLTHH = 0x00;
  6732  07B4  018F               	clrf	15	;volatile
  6733                           
  6734                           ;mcc_generated_files/adcc.c: 71:     ADUTHL = 0x00;
  6735  07B5  0190               	clrf	16	;volatile
  6736                           
  6737                           ;mcc_generated_files/adcc.c: 73:     ADUTHH = 0x00;
  6738  07B6  0191               	clrf	17	;volatile
  6739                           
  6740                           ;mcc_generated_files/adcc.c: 75:     ADSTPTL = 0x00;
  6741  07B7  0192               	clrf	18	;volatile
  6742                           
  6743                           ;mcc_generated_files/adcc.c: 77:     ADSTPTH = 0x00;
  6744  07B8  0193               	clrf	19	;volatile
  6745                           
  6746                           ;mcc_generated_files/adcc.c: 79:     ADRPT = 0x00;
  6747  07B9  018D               	clrf	13	;volatile
  6748                           
  6749                           ;mcc_generated_files/adcc.c: 81:     ADPCH = 0x00;
  6750  07BA  0141               	movlb	1	; select bank1
  6751  07BB  019E               	clrf	30	;volatile
  6752                           
  6753                           ;mcc_generated_files/adcc.c: 83:     ADCAP = 0x00;
  6754  07BC  019B               	clrf	27	;volatile
  6755                           
  6756                           ;mcc_generated_files/adcc.c: 85:     ADPRE = 0x00;
  6757  07BD  019C               	clrf	28	;volatile
  6758                           
  6759                           ;mcc_generated_files/adcc.c: 87:     ADCON1 = 0x00;
  6760  07BE  0194               	clrf	20	;volatile
  6761                           
  6762                           ;mcc_generated_files/adcc.c: 89:     ADCON2 = 0x00;
  6763  07BF  0195               	clrf	21	;volatile
  6764                           
  6765                           ;mcc_generated_files/adcc.c: 91:     ADCON3 = 0x00;
  6766  07C0  0196               	clrf	22	;volatile
  6767                           
  6768                           ;mcc_generated_files/adcc.c: 93:     ADSTAT = 0x00;
  6769  07C1  0197               	clrf	23	;volatile
  6770                           
  6771                           ;mcc_generated_files/adcc.c: 95:     ADREF = 0x00;
  6772  07C2  019A               	clrf	26	;volatile
  6773                           
  6774                           ;mcc_generated_files/adcc.c: 97:     ADACT = 0x00;
  6775  07C3  0199               	clrf	25	;volatile
  6776                           
  6777                           ;mcc_generated_files/adcc.c: 99:     ADCLK = 0x00;
  6778  07C4  0198               	clrf	24	;volatile
  6779  07C5                     l1696:
  6780                           
  6781                           ;mcc_generated_files/adcc.c: 101:     ADCON0 = 0x84;
  6782  07C5  3084               	movlw	132
  6783  07C6  0093               	movwf	19	;volatile
  6784  07C7                     l1698:
  6785                           
  6786                           ;mcc_generated_files/adcc.c: 103:     ADACQ = 0x00;
  6787  07C7  019D               	clrf	29	;volatile
  6788  07C8                     l311:
  6789  07C8  0008               	return
  6790  07C9                     __end_of_ADCC_Initialize:
  6791                           
  6792                           	psect	text18
  6793  07EB                     __ptext18:	
  6794 ;; *************** function _ADCC_GetSingleConversion *****************
  6795 ;; Defined at:
  6796 ;;		line 132 in file "mcc_generated_files/adcc.c"
  6797 ;; Parameters:    Size  Location     Type
  6798 ;;  channel         1    wreg     enum E12144
  6799 ;; Auto vars:     Size  Location     Type
  6800 ;;  channel         1    3[COMMON] enum E12144
  6801 ;; Return value:  Size  Location     Type
  6802 ;;                  2    1[COMMON] unsigned short 
  6803 ;; Registers used:
  6804 ;;		wreg
  6805 ;; Tracked objects:
  6806 ;;		On entry : 0/0
  6807 ;;		On exit  : 0/0
  6808 ;;		Unchanged: 0/0
  6809 ;; Data sizes:     COMMON   BANK0   BANK1   BANK2   BANK3   BANK4   BANK5   BANK6   BANK7   BANK8   BANK9  BANK10  BANK1
      +1  BANK12  BANK13  BANK14  BANK15  BANK16  BANK17  BANK18  BANK19  BANK20  BANK21  BANK22  BANK23  BANK24  BANK25  BANK2
      +6  BANK27  BANK28  BANK29  BANK30  BANK31  BANK32  BANK33  BANK34  BANK35  BANK36  BANK37  BANK38  BANK39  BANK40  BANK4
      +1  BANK42  BANK43  BANK44  BANK45  BANK46  BANK47  BANK48  BANK49  BANK50
  6810 ;;      Params:         2       0       0       0       0       0       0       0       0       0       0       0       
      +0       0       0       0       0       0       0       0       0       0       0       0       0       0       0       
      +0       0       0       0       0       0       0       0       0       0       0       0       0       0       0       
      +0       0       0       0       0       0       0       0       0       0
  6811 ;;      Locals:         1       0       0       0       0       0       0       0       0       0       0       0       
      +0       0       0       0       0       0       0       0       0       0       0       0       0       0       0       
      +0       0       0       0       0       0       0       0       0       0       0       0       0       0       0       
      +0       0       0       0       0       0       0       0       0       0
  6812 ;;      Temps:          0       0       0       0       0       0       0       0       0       0       0       0       
      +0       0       0       0       0       0       0       0       0       0       0       0       0       0       0       
      +0       0       0       0       0       0       0       0       0       0       0       0       0       0       0       
      +0       0       0       0       0       0       0       0       0       0
  6813 ;;      Totals:         3       0       0       0       0       0       0       0       0       0       0       0       
      +0       0       0       0       0       0       0       0       0       0       0       0       0       0       0       
      +0       0       0       0       0       0       0       0       0       0       0       0       0       0       0       
      +0       0       0       0       0       0       0       0       0       0
  6814 ;;Total ram usage:        3 bytes
  6815 ;; Hardware stack levels used: 1
  6816 ;; Hardware stack levels required when called: 1
  6817 ;; This function calls:
  6818 ;;		Nothing
  6819 ;; This function is called by:
  6820 ;;		_main
  6821 ;; This function uses a non-reentrant model
  6822 ;;
  6823                           
  6824                           
  6825                           ;psect for function _ADCC_GetSingleConversion
  6826  07EB                     _ADCC_GetSingleConversion:
  6827                           
  6828                           ;incstack = 0
  6829                           ; Regs used in _ADCC_GetSingleConversion: [wreg]
  6830                           ;ADCC_GetSingleConversion@channel stored from wreg
  6831  07EB  00F3               	movwf	ADCC_GetSingleConversion@channel
  6832  07EC                     l1868:
  6833                           
  6834                           ;mcc_generated_files/adcc.c: 132: adc_result_t ADCC_GetSingleConversion(adcc_channel_t c
      +                          hannel);mcc_generated_files/adcc.c: 133: {;mcc_generated_files/adcc.c: 135:     ADPCH = 
      +                          channel;
  6835  07EC  0873               	movf	ADCC_GetSingleConversion@channel,w
  6836  07ED  0141               	movlb	1	; select bank1
  6837  07EE  009E               	movwf	30	;volatile
  6838  07EF                     l1870:
  6839                           
  6840                           ;mcc_generated_files/adcc.c: 138:     ADCON0bits.ADON = 1;
  6841  07EF  1793               	bsf	19,7	;volatile
  6842  07F0                     l1872:
  6843                           
  6844                           ;mcc_generated_files/adcc.c: 141:     ADCON0bits.ADCONT = 0;
  6845  07F0  1313               	bcf	19,6	;volatile
  6846  07F1                     l1874:
  6847                           
  6848                           ;mcc_generated_files/adcc.c: 144:     ADCON0bits.ADGO = 1;
  6849  07F1  1413               	bsf	19,0	;volatile
  6850  07F2                     l323:	
  6851                           ;mcc_generated_files/adcc.c: 149:     {;mcc_generated_files/adcc.c: 150:     }
  6852                           
  6853                           
  6854                           ;mcc_generated_files/adcc.c: 148:     while (ADCON0bits.ADGO)
  6855  07F2  1813               	btfsc	19,0	;volatile
  6856  07F3  2FF5               	goto	u1331
  6857  07F4  2FF6               	goto	u1330
  6858  07F5                     u1331:
  6859  07F5  2FF2               	goto	l323
  6860  07F6                     u1330:
  6861  07F6                     l1876:
  6862                           
  6863                           ;mcc_generated_files/adcc.c: 154:     return ((adc_result_t)((ADRESH << 8) + ADRESL));
  6864  07F6  080D               	movf	13,w	;volatile
  6865  07F7  00F2               	movwf	?_ADCC_GetSingleConversion+1
  6866  07F8  080C               	movf	12,w	;volatile
  6867  07F9  00F1               	movwf	?_ADCC_GetSingleConversion
  6868  07FA                     l326:
  6869  07FA  0008               	return
  6870  07FB                     __end_of_ADCC_GetSingleConversion:
  6871                           
  6872                           	psect	intentry
  6873  0004                     __pintentry:	
  6874 ;; *************** function _MyISR *****************
  6875 ;; Defined at:
  6876 ;;		line 174 in file "main.c"
  6877 ;; Parameters:    Size  Location     Type
  6878 ;;		None
  6879 ;; Auto vars:     Size  Location     Type
  6880 ;;		None
  6881 ;; Return value:  Size  Location     Type
  6882 ;;                  1    wreg      void 
  6883 ;; Registers used:
  6884 ;;		wreg, status,0
  6885 ;; Tracked objects:
  6886 ;;		On entry : 0/0
  6887 ;;		On exit  : 0/0
  6888 ;;		Unchanged: 0/0
  6889 ;; Data sizes:     COMMON   BANK0   BANK1   BANK2   BANK3   BANK4   BANK5   BANK6   BANK7   BANK8   BANK9  BANK10  BANK1
      +1  BANK12  BANK13  BANK14  BANK15  BANK16  BANK17  BANK18  BANK19  BANK20  BANK21  BANK22  BANK23  BANK24  BANK25  BANK2
      +6  BANK27  BANK28  BANK29  BANK30  BANK31  BANK32  BANK33  BANK34  BANK35  BANK36  BANK37  BANK38  BANK39  BANK40  BANK4
      +1  BANK42  BANK43  BANK44  BANK45  BANK46  BANK47  BANK48  BANK49  BANK50
  6890 ;;      Params:         0       0       0       0       0       0       0       0       0       0       0       0       
      +0       0       0       0       0       0       0       0       0       0       0       0       0       0       0       
      +0       0       0       0       0       0       0       0       0       0       0       0       0       0       0       
      +0       0       0       0       0       0       0       0       0       0
  6891 ;;      Locals:         0       0       0       0       0       0       0       0       0       0       0       0       
      +0       0       0       0       0       0       0       0       0       0       0       0       0       0       0       
      +0       0       0       0       0       0       0       0       0       0       0       0       0       0       0       
      +0       0       0       0       0       0       0       0       0       0
  6892 ;;      Temps:          1       0       0       0       0       0       0       0       0       0       0       0       
      +0       0       0       0       0       0       0       0       0       0       0       0       0       0       0       
      +0       0       0       0       0       0       0       0       0       0       0       0       0       0       0       
      +0       0       0       0       0       0       0       0       0       0
  6893 ;;      Totals:         1       0       0       0       0       0       0       0       0       0       0       0       
      +0       0       0       0       0       0       0       0       0       0       0       0       0       0       0       
      +0       0       0       0       0       0       0       0       0       0       0       0       0       0       0       
      +0       0       0       0       0       0       0       0       0       0
  6894 ;;Total ram usage:        1 bytes
  6895 ;; Hardware stack levels used: 1
  6896 ;; This function calls:
  6897 ;;		Nothing
  6898 ;; This function is called by:
  6899 ;;		Interrupt level 1
  6900 ;; This function uses a non-reentrant model
  6901 ;;
  6902                           
  6903  0004                     _MyISR:
  6904                           
  6905                           ;incstack = 0
  6906  0004  147E               	bsf	int$flags,0	;set compiler interrupt flag (level 1)
  6907                           
  6908                           ; Regs used in _MyISR: [wreg+status,0]
  6909  0005  3180               	pagesel	$
  6910  0006                     i1l2100:
  6911                           
  6912                           ;main.c: 176:     if(PIR0bits.INTF == 1)
  6913  0006  014E               	movlb	14	; select bank14
  6914  0007  1C0C               	btfss	12,0	;volatile
  6915  0008  280A               	goto	u184_21
  6916  0009  280B               	goto	u184_20
  6917  000A                     u184_21:
  6918  000A  2824               	goto	i1l213
  6919  000B                     u184_20:
  6920  000B                     i1l2102:
  6921  000B  1003               	clrc
  6922  000C  0140               	movlb	0	; select bank0
  6923  000D  1D97               	btfss	23,3	;volatile
  6924  000E  1403               	setc
  6925  000F  1803               	btfsc	3,0
  6926  0010  2812               	goto	u185_21
  6927  0011  2815               	goto	u185_20
  6928  0012                     u185_21:
  6929  0012  0140               	movlb	0	; select bank0
  6930  0013  1597               	bsf	23,3	;volatile
  6931  0014  2817               	goto	u186_24
  6932  0015                     u185_20:
  6933  0015  0140               	movlb	0	; select bank0
  6934  0016  1197               	bcf	23,3	;volatile
  6935  0017                     u186_24:
  6936  0017                     i1l2104:
  6937                           
  6938                           ;main.c: 180:         stop_watchflag = 1;
  6939  0017  3001               	movlw	1
  6940  0018  00D5               	movwf	_stop_watchflag
  6941  0019  3000               	movlw	0
  6942  001A  00D6               	movwf	_stop_watchflag+1
  6943  001B                     i1l2106:
  6944                           
  6945                           ;main.c: 181:         _delay((unsigned long)((300)*(1000000/4000.0)));
  6946  001B  3062               	movlw	98
  6947  001C  00F0               	movwf	??_MyISR
  6948  001D  3066               	movlw	102
  6949  001E                     u211_27:
  6950  001E  0B89               	decfsz	9,f
  6951  001F  281E               	goto	u211_27
  6952  0020  0BF0               	decfsz	??_MyISR,f
  6953  0021  281E               	goto	u211_27
  6954  0022                     i1l2108:
  6955                           
  6956                           ;main.c: 183:         PIR0bits.INTF = 0;
  6957  0022  014E               	movlb	14	; select bank14
  6958  0023  100C               	bcf	12,0	;volatile
  6959  0024                     i1l213:
  6960  0024  107E               	bcf	int$flags,0	;clear compiler interrupt flag (level 1)
  6961  0025  0009               	retfie
  6962  0026                     __end_of_MyISR:
  6963  007E                     btemp	set	126	;btemp
  6964  007E                     int$flags	set	126
  6965  007E                     wtemp0	set	126
  6966                           
  6967                           	psect	config
  6968                           
  6969                           ;Config register CONFIG1 @ 0x8007
  6970                           ;	External Oscillator mode selection bits
  6971                           ;	FEXTOSC = OFF, Oscillator not enabled
  6972                           ;	Power-up default value for COSC bits
  6973                           ;	RSTOSC = HFINT1, HFINTOSC (1MHz)
  6974                           ;	Clock Out Enable bit
  6975                           ;	CLKOUTEN = OFF, CLKOUT function is disabled; i/o or oscillator function on OSC2
  6976                           ;	Clock Switch Enable bit
  6977                           ;	CSWEN = ON, Writing to NOSC and NDIV is allowed
  6978                           ;	Fail-Safe Clock Monitor Enable bit
  6979                           ;	FCMEN = ON, FSCM timer enabled
  6980  8007                     	org	32775
  6981  8007  3FEC               	dw	16364
  6982                           
  6983                           ;Config register CONFIG2 @ 0x8008
  6984                           ;	Master Clear Enable bit
  6985                           ;	MCLRE = ON, MCLR pin is Master Clear function
  6986                           ;	Power-up Timer Enable bit
  6987                           ;	PWRTE = OFF, PWRT disabled
  6988                           ;	Low-Power BOR enable bit
  6989                           ;	LPBOREN = OFF, ULPBOR disabled
  6990                           ;	Brown-out reset enable bits
  6991                           ;	BOREN = ON, Brown-out Reset Enabled, SBOREN bit is ignored
  6992                           ;	Brown-out Reset Voltage Selection
  6993                           ;	BORV = LO, Brown-out Reset Voltage (VBOR) set to 1.9V on LF, and 2.45V on F Devices
  6994                           ;	Zero-cross detect disable
  6995                           ;	ZCD = OFF, Zero-cross detect circuit is disabled at POR.
  6996                           ;	Peripheral Pin Select one-way control
  6997                           ;	PPS1WAY = ON, The PPSLOCK bit can be cleared and set only once in software
  6998                           ;	Stack Overflow/Underflow Reset Enable bit
  6999                           ;	STVREN = ON, Stack Overflow or Underflow will cause a reset
  7000                           ;	Background Debugger
  7001                           ;	DEBUG = OFF, Background Debugger disabled
  7002  8008                     	org	32776
  7003  8008  3FFF               	dw	16383
  7004                           
  7005                           ;Config register CONFIG3 @ 0x8009
  7006                           ;	WDT Period Select bits
  7007                           ;	WDTCPS = WDTCPS_31, Divider ratio 1:65536; software control of WDTPS
  7008                           ;	WDT operating mode
  7009                           ;	WDTE = OFF, WDT Disabled, SWDTEN is ignored
  7010                           ;	WDT Window Select bits
  7011                           ;	WDTCWS = WDTCWS_7, window always open (100%); software control; keyed access not requi
      +                          red
  7012                           ;	WDT input clock selector
  7013                           ;	WDTCCS = SC, Software Control
  7014  8009                     	org	32777
  7015  8009  3F9F               	dw	16287
  7016                           
  7017                           ;Config register CONFIG4 @ 0x800A
  7018                           ;	UserNVM self-write protection bits
  7019                           ;	WRT = OFF, Write protection off
  7020                           ;	Scanner Enable bit
  7021                           ;	SCANE = available, Scanner module is available for use
  7022                           ;	Low Voltage Programming Enable bit
  7023                           ;	LVP = ON, Low Voltage programming enabled. MCLR/Vpp pin function is MCLR.
  7024  800A                     	org	32778
  7025  800A  3FFF               	dw	16383
  7026                           
  7027                           ;Config register CONFIG5 @ 0x800B
  7028                           ;	UserNVM Program memory code protection bit
  7029                           ;	CP = OFF, Program Memory code protection disabled
  7030                           ;	DataNVM code protection bit
  7031                           ;	CPD = OFF, Data EEPROM code protection disabled
  7032  800B                     	org	32779
  7033  800B  3FFF               	dw	16383

Data Sizes:
    Strings     45
    Constant    0
    Data        0
    BSS         9
    Persistent  32
    Stack       0

Auto Spaces:
    Space          Size  Autos    Used
    COMMON           14     12      13
    BANK0            80     47      55
    BANK1            80      0       0
    BANK2            80      0       0
    BANK3            80      0       0
    BANK4            80      0       0
    BANK5            80      0       0
    BANK6            80      0       0
    BANK7            80      0       0
    BANK8            80      0       0
    BANK9            80      0       0
    BANK10           80      0       0
    BANK11           80      0       0
    BANK12           80      0       0
    BANK13           80      0       0
    BANK14           80      0       0
    BANK15           80      0       0
    BANK16           80      0       0
    BANK17           80      0       0
    BANK18           80      0       0
    BANK19           80      0       0
    BANK20           80      0       0
    BANK21           80      0       0
    BANK22           80      0       0
    BANK23           80      0       0
    BANK24           80      0       0
    BANK25           80      0       0
    BANK26           80      0       0
    BANK27           80      0       0
    BANK28           80      0       0
    BANK29           80      0       0
    BANK30           80      0       0
    BANK31           80      0       0
    BANK32           80      0       0
    BANK33           80      0       0
    BANK34           80      0       0
    BANK35           80      0       0
    BANK36           80      0       0
    BANK37           80      0       0
    BANK38           80      0       0
    BANK39           80      0       0
    BANK40           80      0       0
    BANK41           80      0       0
    BANK42           80      0       0
    BANK43           80      0       0
    BANK44           80      0       0
    BANK45           80      0       0
    BANK46           80      0       0
    BANK47           80      0       0
    BANK48           80      0       0
    BANK49           80      0       0
    BANK50           80      0       0

Pointer List with Targets:

    lcd_out@str	PTR unsigned char  size(2) Largest target is 9
		 -> STR_7(CODE[9]), STR_6(CODE[5]), STR_5(CODE[5]), STR_4(CODE[5]), 
		 -> STR_3(CODE[8]), STR_2(CODE[8]), STR_1(CODE[5]), 


Critical Paths under _main in COMMON

    _main->___fltol
    _lcd_print->___lwdiv
    _lcd_out->_cursorxy
    _cursorxy->_lcd_cmd
    _lcd_init->_lcd_cmd
    ___flmul->__Umul8_16

Critical Paths under _MyISR in COMMON

    None.

Critical Paths under _main in BANK0

    _main->___fltol
    ___fltol->___flmul
    ___flmul->___xxtofl

Critical Paths under _MyISR in BANK0

    None.

Critical Paths under _main in BANK1

    None.

Critical Paths under _MyISR in BANK1

    None.

Critical Paths under _main in BANK2

    None.

Critical Paths under _MyISR in BANK2

    None.

Critical Paths under _main in BANK3

    None.

Critical Paths under _MyISR in BANK3

    None.

Critical Paths under _main in BANK4

    None.

Critical Paths under _MyISR in BANK4

    None.

Critical Paths under _main in BANK5

    None.

Critical Paths under _MyISR in BANK5

    None.

Critical Paths under _main in BANK6

    None.

Critical Paths under _MyISR in BANK6

    None.

Critical Paths under _main in BANK7

    None.

Critical Paths under _MyISR in BANK7

    None.

Critical Paths under _main in BANK8

    None.

Critical Paths under _MyISR in BANK8

    None.

Critical Paths under _main in BANK9

    None.

Critical Paths under _MyISR in BANK9

    None.

Critical Paths under _main in BANK10

    None.

Critical Paths under _MyISR in BANK10

    None.

Critical Paths under _main in BANK11

    None.

Critical Paths under _MyISR in BANK11

    None.

Critical Paths under _main in BANK12

    None.

Critical Paths under _MyISR in BANK12

    None.

Critical Paths under _main in BANK13

    None.

Critical Paths under _MyISR in BANK13

    None.

Critical Paths under _main in BANK14

    None.

Critical Paths under _MyISR in BANK14

    None.

Critical Paths under _main in BANK15

    None.

Critical Paths under _MyISR in BANK15

    None.

Critical Paths under _main in BANK16

    None.

Critical Paths under _MyISR in BANK16

    None.

Critical Paths under _main in BANK17

    None.

Critical Paths under _MyISR in BANK17

    None.

Critical Paths under _main in BANK18

    None.

Critical Paths under _MyISR in BANK18

    None.

Critical Paths under _main in BANK19

    None.

Critical Paths under _MyISR in BANK19

    None.

Critical Paths under _main in BANK20

    None.

Critical Paths under _MyISR in BANK20

    None.

Critical Paths under _main in BANK21

    None.

Critical Paths under _MyISR in BANK21

    None.

Critical Paths under _main in BANK22

    None.

Critical Paths under _MyISR in BANK22

    None.

Critical Paths under _main in BANK23

    None.

Critical Paths under _MyISR in BANK23

    None.

Critical Paths under _main in BANK24

    None.

Critical Paths under _MyISR in BANK24

    None.

Critical Paths under _main in BANK25

    None.

Critical Paths under _MyISR in BANK25

    None.

Critical Paths under _main in BANK26

    None.

Critical Paths under _MyISR in BANK26

    None.

Critical Paths under _main in BANK27

    None.

Critical Paths under _MyISR in BANK27

    None.

Critical Paths under _main in BANK28

    None.

Critical Paths under _MyISR in BANK28

    None.

Critical Paths under _main in BANK29

    None.

Critical Paths under _MyISR in BANK29

    None.

Critical Paths under _main in BANK30

    None.

Critical Paths under _MyISR in BANK30

    None.

Critical Paths under _main in BANK31

    None.

Critical Paths under _MyISR in BANK31

    None.

Critical Paths under _main in BANK32

    None.

Critical Paths under _MyISR in BANK32

    None.

Critical Paths under _main in BANK33

    None.

Critical Paths under _MyISR in BANK33

    None.

Critical Paths under _main in BANK34

    None.

Critical Paths under _MyISR in BANK34

    None.

Critical Paths under _main in BANK35

    None.

Critical Paths under _MyISR in BANK35

    None.

Critical Paths under _main in BANK36

    None.

Critical Paths under _MyISR in BANK36

    None.

Critical Paths under _main in BANK37

    None.

Critical Paths under _MyISR in BANK37

    None.

Critical Paths under _main in BANK38

    None.

Critical Paths under _MyISR in BANK38

    None.

Critical Paths under _main in BANK39

    None.

Critical Paths under _MyISR in BANK39

    None.

Critical Paths under _main in BANK40

    None.

Critical Paths under _MyISR in BANK40

    None.

Critical Paths under _main in BANK41

    None.

Critical Paths under _MyISR in BANK41

    None.

Critical Paths under _main in BANK42

    None.

Critical Paths under _MyISR in BANK42

    None.

Critical Paths under _main in BANK43

    None.

Critical Paths under _MyISR in BANK43

    None.

Critical Paths under _main in BANK44

    None.

Critical Paths under _MyISR in BANK44

    None.

Critical Paths under _main in BANK45

    None.

Critical Paths under _MyISR in BANK45

    None.

Critical Paths under _main in BANK46

    None.

Critical Paths under _MyISR in BANK46

    None.

Critical Paths under _main in BANK47

    None.

Critical Paths under _MyISR in BANK47

    None.

Critical Paths under _main in BANK48

    None.

Critical Paths under _MyISR in BANK48

    None.

Critical Paths under _main in BANK49

    None.

Critical Paths under _MyISR in BANK49

    None.

Critical Paths under _main in BANK50

    None.

Critical Paths under _MyISR in BANK50

    None.

Call Graph Tables:

 ---------------------------------------------------------------------------------
 (Depth) Function   	        Calls       Base Space   Used Autos Params    Refs
 ---------------------------------------------------------------------------------
 (0) _main                                                 6     6      0    8865
                                             41 BANK0      6     6      0
           _ADCC_GetSingleConversion
                  _SYSTEM_Initialize
                            ___flmul
                            ___fltol
                           ___xxtofl
                           _lcd_data
                           _lcd_init
                            _lcd_out
                          _lcd_print
 ---------------------------------------------------------------------------------
 (1) _lcd_print                                           20    15      5    3962
                                              9 COMMON     1     1      0
                                              0 BANK0     19    14      5
                            ___lwdiv
                            ___lwmod
                           _cursorxy
                           _lcd_data
 ---------------------------------------------------------------------------------
 (2) ___lwmod                                              6     2      4     767
                                              1 COMMON     6     2      4
 ---------------------------------------------------------------------------------
 (2) ___lwdiv                                              8     4      4     770
                                              1 COMMON     8     4      4
 ---------------------------------------------------------------------------------
 (1) _lcd_out                                              5     2      3    1581
                                              4 COMMON     5     2      3
                           _cursorxy
                           _lcd_data
 ---------------------------------------------------------------------------------
 (2) _lcd_data                                             1     1      0      22
                                              1 COMMON     1     1      0
 ---------------------------------------------------------------------------------
 (2) _cursorxy                                             2     1      1     406
                                              2 COMMON     2     1      1
                            _lcd_cmd
 ---------------------------------------------------------------------------------
 (1) _lcd_init                                             0     0      0      22
                            _lcd_cmd
 ---------------------------------------------------------------------------------
 (3) _lcd_cmd                                              1     1      0      22
                                              1 COMMON     1     1      0
 ---------------------------------------------------------------------------------
 (1) ___xxtofl                                            14    10      4     398
                                              1 COMMON     8     4      4
                                              0 BANK0      6     6      0
 ---------------------------------------------------------------------------------
 (1) ___fltol                                             11     7      4     305
                                             10 COMMON     2     2      0
                                             32 BANK0      9     5      4
                            ___flmul (ARG)
                           ___xxtofl (ARG)
 ---------------------------------------------------------------------------------
 (1) ___flmul                                             26    18      8    2417
                                              6 BANK0     26    18      8
                          __Umul8_16
                           ___xxtofl (ARG)
 ---------------------------------------------------------------------------------
 (2) __Umul8_16                                            9     7      2     799
                                              1 COMMON     9     7      2
 ---------------------------------------------------------------------------------
 (1) _SYSTEM_Initialize                                    0     0      0       0
                    _ADCC_Initialize
              _OSCILLATOR_Initialize
             _PIN_MANAGER_Initialize
                     _PMD_Initialize
 ---------------------------------------------------------------------------------
 (2) _PMD_Initialize                                       0     0      0       0
 ---------------------------------------------------------------------------------
 (2) _PIN_MANAGER_Initialize                               0     0      0       0
 ---------------------------------------------------------------------------------
 (2) _OSCILLATOR_Initialize                                0     0      0       0
 ---------------------------------------------------------------------------------
 (2) _ADCC_Initialize                                      0     0      0       0
 ---------------------------------------------------------------------------------
 (1) _ADCC_GetSingleConversion                             3     1      2      22
                                              1 COMMON     3     1      2
 ---------------------------------------------------------------------------------
 Estimated maximum stack depth 3
 ---------------------------------------------------------------------------------
 (Depth) Function   	        Calls       Base Space   Used Autos Params    Refs
 ---------------------------------------------------------------------------------
 (4) _MyISR                                                1     1      0       0
                                              0 COMMON     1     1      0
 ---------------------------------------------------------------------------------
 Estimated maximum stack depth 4
 ---------------------------------------------------------------------------------

 Call Graph Graphs:

 _main (ROOT)
   _ADCC_GetSingleConversion
   _SYSTEM_Initialize
     _ADCC_Initialize
     _OSCILLATOR_Initialize
     _PIN_MANAGER_Initialize
     _PMD_Initialize
   ___flmul
     __Umul8_16
     ___xxtofl (ARG)
   ___fltol
     ___flmul (ARG)
     ___xxtofl (ARG)
   ___xxtofl
   _lcd_data
   _lcd_init
     _lcd_cmd
   _lcd_out
     _cursorxy
       _lcd_cmd
     _lcd_data
   _lcd_print
     ___lwdiv
     ___lwmod
     _cursorxy
     _lcd_data

 _MyISR (ROOT)

 Address spaces:
Name               Size   Autos  Total    Cost      Usage
BIGRAM             FF0      0       0       0        0.0%
EEDATA             100      0       0       0        0.0%
NULL                 0      0       0       0        0.0%
CODE                 0      0       0       0        0.0%
BITCOMMON            E      0       0       1        0.0%
BITSFR0              0      0       0       1        0.0%
SFR0                 0      0       0       1        0.0%
COMMON               E      C       D       2       92.9%
BITSFR1              0      0       0       2        0.0%
SFR1                 0      0       0       2        0.0%
BITSFR2              0      0       0       3        0.0%
SFR2                 0      0       0       3        0.0%
STACK                0      0       0       3        0.0%
BITBANK0            50      0       0       4        0.0%
BITSFR3              0      0       0       4        0.0%
SFR3                 0      0       0       4        0.0%
BANK0               50     2F      37       5       68.8%
BITSFR4              0      0       0       5        0.0%
SFR4                 0      0       0       5        0.0%
BITBANK1            50      0       0       6        0.0%
BITSFR5              0      0       0       6        0.0%
SFR5                 0      0       0       6        0.0%
BANK1               50      0       0       7        0.0%
BITSFR6              0      0       0       7        0.0%
SFR6                 0      0       0       7        0.0%
BITBANK2            50      0       0       8        0.0%
BITSFR7              0      0       0       8        0.0%
SFR7                 0      0       0       8        0.0%
BANK2               50      0       0       9        0.0%
BITSFR8              0      0       0       9        0.0%
SFR8                 0      0       0       9        0.0%
BITBANK3            50      0       0      10        0.0%
BITSFR9              0      0       0      10        0.0%
SFR9                 0      0       0      10        0.0%
BANK3               50      0       0      11        0.0%
BITSFR10             0      0       0      11        0.0%
SFR10                0      0       0      11        0.0%
BITBANK4            50      0       0      12        0.0%
BITSFR11             0      0       0      12        0.0%
SFR11                0      0       0      12        0.0%
BANK4               50      0       0      13        0.0%
BITSFR12             0      0       0      13        0.0%
SFR12                0      0       0      13        0.0%
BITBANK5            50      0       0      14        0.0%
BITSFR13             0      0       0      14        0.0%
SFR13                0      0       0      14        0.0%
BANK5               50      0       0      15        0.0%
BITSFR14             0      0       0      15        0.0%
SFR14                0      0       0      15        0.0%
BITBANK6            50      0       0      16        0.0%
BITSFR15             0      0       0      16        0.0%
SFR15                0      0       0      16        0.0%
BANK6               50      0       0      17        0.0%
BITSFR16             0      0       0      17        0.0%
SFR16                0      0       0      17        0.0%
BITBANK7            50      0       0      18        0.0%
BITSFR17             0      0       0      18        0.0%
SFR17                0      0       0      18        0.0%
BANK7               50      0       0      19        0.0%
BITSFR18             0      0       0      19        0.0%
SFR18                0      0       0      19        0.0%
BITBANK8            50      0       0      20        0.0%
BITSFR19             0      0       0      20        0.0%
SFR19                0      0       0      20        0.0%
BANK8               50      0       0      21        0.0%
BITSFR20             0      0       0      21        0.0%
SFR20                0      0       0      21        0.0%
BITBANK9            50      0       0      22        0.0%
BITSFR21             0      0       0      22        0.0%
SFR21                0      0       0      22        0.0%
BANK9               50      0       0      23        0.0%
BITSFR22             0      0       0      23        0.0%
SFR22                0      0       0      23        0.0%
BITBANK10           50      0       0      24        0.0%
BITSFR23             0      0       0      24        0.0%
SFR23                0      0       0      24        0.0%
BANK10              50      0       0      25        0.0%
BITSFR24             0      0       0      25        0.0%
SFR24                0      0       0      25        0.0%
BITBANK11           50      0       0      26        0.0%
BITSFR25             0      0       0      26        0.0%
SFR25                0      0       0      26        0.0%
BANK11              50      0       0      27        0.0%
BITSFR26             0      0       0      27        0.0%
SFR26                0      0       0      27        0.0%
BITSFR27             0      0       0      28        0.0%
SFR27                0      0       0      28        0.0%
ABS                  0      0      44      28        0.0%
BITBANK12           50      0       0      29        0.0%
BITSFR28             0      0       0      29        0.0%
SFR28                0      0       0      29        0.0%
BANK12              50      0       0      30        0.0%
BITSFR29             0      0       0      30        0.0%
SFR29                0      0       0      30        0.0%
BITBANK13           50      0       0      31        0.0%
BITSFR30             0      0       0      31        0.0%
SFR30                0      0       0      31        0.0%
BANK13              50      0       0      32        0.0%
BITSFR31             0      0       0      32        0.0%
SFR31                0      0       0      32        0.0%
BITBANK14           50      0       0      33        0.0%
BITSFR32             0      0       0      33        0.0%
SFR32                0      0       0      33        0.0%
BANK14              50      0       0      34        0.0%
BITSFR33             0      0       0      34        0.0%
SFR33                0      0       0      34        0.0%
BITBANK15           50      0       0      35        0.0%
BITSFR34             0      0       0      35        0.0%
SFR34                0      0       0      35        0.0%
BANK15              50      0       0      36        0.0%
BITSFR35             0      0       0      36        0.0%
SFR35                0      0       0      36        0.0%
BITBANK16           50      0       0      37        0.0%
BITSFR36             0      0       0      37        0.0%
SFR36                0      0       0      37        0.0%
BANK16              50      0       0      38        0.0%
BITSFR37             0      0       0      38        0.0%
SFR37                0      0       0      38        0.0%
BITBANK17           50      0       0      39        0.0%
BITSFR38             0      0       0      39        0.0%
SFR38                0      0       0      39        0.0%
BANK17              50      0       0      40        0.0%
BITSFR39             0      0       0      40        0.0%
SFR39                0      0       0      40        0.0%
BITBANK18           50      0       0      41        0.0%
BITSFR40             0      0       0      41        0.0%
SFR40                0      0       0      41        0.0%
BANK18              50      0       0      42        0.0%
BITSFR41             0      0       0      42        0.0%
SFR41                0      0       0      42        0.0%
BITBANK19           50      0       0      43        0.0%
BITSFR42             0      0       0      43        0.0%
SFR42                0      0       0      43        0.0%
BANK19              50      0       0      44        0.0%
BITSFR43             0      0       0      44        0.0%
SFR43                0      0       0      44        0.0%
BITBANK20           50      0       0      45        0.0%
BITSFR44             0      0       0      45        0.0%
SFR44                0      0       0      45        0.0%
BANK20              50      0       0      46        0.0%
BITSFR45             0      0       0      46        0.0%
SFR45                0      0       0      46        0.0%
BITBANK21           50      0       0      47        0.0%
BITSFR46             0      0       0      47        0.0%
SFR46                0      0       0      47        0.0%
BANK21              50      0       0      48        0.0%
BITSFR47             0      0       0      48        0.0%
SFR47                0      0       0      48        0.0%
BITBANK22           50      0       0      49        0.0%
BITSFR48             0      0       0      49        0.0%
SFR48                0      0       0      49        0.0%
BANK22              50      0       0      50        0.0%
BITSFR49             0      0       0      50        0.0%
SFR49                0      0       0      50        0.0%
BITBANK23           50      0       0      51        0.0%
BITSFR50             0      0       0      51        0.0%
SFR50                0      0       0      51        0.0%
BANK23              50      0       0      52        0.0%
BITSFR51             0      0       0      52        0.0%
SFR51                0      0       0      52        0.0%
BITBANK24           50      0       0      53        0.0%
BITSFR52             0      0       0      53        0.0%
SFR52                0      0       0      53        0.0%
BANK24              50      0       0      54        0.0%
BITSFR53             0      0       0      54        0.0%
SFR53                0      0       0      54        0.0%
BITBANK25           50      0       0      55        0.0%
BITSFR54             0      0       0      55        0.0%
SFR54                0      0       0      55        0.0%
BANK25              50      0       0      56        0.0%
BITSFR55             0      0       0      56        0.0%
SFR55                0      0       0      56        0.0%
BITBANK26           50      0       0      57        0.0%
BITSFR56             0      0       0      57        0.0%
SFR56                0      0       0      57        0.0%
BANK26              50      0       0      58        0.0%
BITSFR57             0      0       0      58        0.0%
SFR57                0      0       0      58        0.0%
BITSFR58             0      0       0      59        0.0%
SFR58                0      0       0      59        0.0%
DATA                 0      0      44      59        0.0%
BITBANK27           50      0       0      60        0.0%
BITSFR59             0      0       0      60        0.0%
SFR59                0      0       0      60        0.0%
BANK27              50      0       0      61        0.0%
BITSFR60             0      0       0      61        0.0%
SFR60                0      0       0      61        0.0%
BITBANK28           50      0       0      62        0.0%
BITSFR61             0      0       0      62        0.0%
SFR61                0      0       0      62        0.0%
BANK28              50      0       0      63        0.0%
BITSFR62             0      0       0      63        0.0%
SFR62                0      0       0      63        0.0%
BITBANK29           50      0       0      64        0.0%
BITSFR63             0      0       0      64        0.0%
SFR63                0      0       0      64        0.0%
BANK29              50      0       0      65        0.0%
BITBANK30           50      0       0      66        0.0%
BANK30              50      0       0      67        0.0%
BITBANK31           50      0       0      68        0.0%
BANK31              50      0       0      69        0.0%
BITBANK32           50      0       0      70        0.0%
BANK32              50      0       0      71        0.0%
BITBANK33           50      0       0      72        0.0%
BANK33              50      0       0      73        0.0%
BITBANK34           50      0       0      74        0.0%
BANK34              50      0       0      75        0.0%
BITBANK35           50      0       0      76        0.0%
BANK35              50      0       0      77        0.0%
BITBANK36           50      0       0      78        0.0%
BANK36              50      0       0      79        0.0%
BITBANK37           50      0       0      80        0.0%
BANK37              50      0       0      81        0.0%
BITBANK38           50      0       0      82        0.0%
BANK38              50      0       0      83        0.0%
BITBANK39           50      0       0      84        0.0%
BANK39              50      0       0      85        0.0%
BITBANK40           50      0       0      86        0.0%
BANK40              50      0       0      87        0.0%
BITBANK41           50      0       0      88        0.0%
BANK41              50      0       0      89        0.0%
BITBANK42           50      0       0      90        0.0%
BANK42              50      0       0      91        0.0%
BITBANK43           50      0       0      92        0.0%
BANK43              50      0       0      93        0.0%
BITBANK44           50      0       0      94        0.0%
BANK44              50      0       0      95        0.0%
BITBANK45           50      0       0      96        0.0%
BANK45              50      0       0      97        0.0%
BITBANK46           50      0       0      98        0.0%
BANK46              50      0       0      99        0.0%
BITBANK47           50      0       0     100        0.0%
BANK47              50      0       0     101        0.0%
BITBANK48           50      0       0     102        0.0%
BANK48              50      0       0     103        0.0%
BITBANK49           50      0       0     104        0.0%
BANK49              50      0       0     105        0.0%
BITBANK50           50      0       0     106        0.0%
BANK50              50      0       0     107        0.0%


Microchip Technology PIC Macro Assembler V2.32 build 20210201212658 
Symbol Table                                                                                   Thu Jan 27 17:02:53 2022

                      lcd_data@dat 0071                                 l73 06DD  
              __Umul8_16@word_mpld 0077                                l112 0FF2  
                              l115 0FE9                                l203 07B1  
                              l109 0FFF                                l311 07C8  
                              l151 07E6                                l152 07EA  
                              l160 07D5                                l161 07D9  
                              l146 07DB                                l323 07F2  
                              l155 07CA                                l164 0742  
                              l149 07E0                                l326 07FA  
                              l174 076E                                l158 07CF  
                              l169 075A                                l197 0546  
                              l824 06A4                                l745 0653  
                              l738 0668                                l834 0711  
                              l748 0668                                l941 028C  
                              l960 0781                                l953 0280  
                              l962 0791                                l947 0208  
                              l991 05A5                                l985 056A  
                              l987 05F3                                l998 05BF  
                              l999 05CB                                u990 0749  
                              u991 0748            __size_of_PMD_Initialize 0008  
                              wreg 0009                       ___flmul@aexp 0038  
                     ___flmul@bexp 0039                       ___flmul@sign 0033  
                     ___flmul@temp 003E                       ___flmul@prod 003A  
                     ___fltol@exp1 007B                               l2000 01C5  
                             l2010 01E4                               l2002 01D1  
                             l2020 0205                               l2004 01D8  
                             l2012 01E8                               l2030 021E  
                             l2014 01EC                               l2006 01DC  
                             l2110 028D                               l2040 025F  
                             l2032 0236                               l2024 020D  
                             l2016 01ED                               l2008 01DD  
                             l2200 0428                               l2120 02AC  
                             l2112 0290                               l2050 027C  
                             l2042 0268                               l2026 0212  
                             l2034 023A                               l2018 01F1  
                             l2202 042A                               l2130 02CC  
                             l2122 02B0                               l2114 0290  
                             l2052 0284                               l2044 026A  
                             l2036 0247                               l2028 021A  
                             l2060 0552                               l2140 0317  
                             l2132 02CE                               l2124 02C1  
                             l2116 0293                               l2046 0277  
                             l2038 0251                               l2070 0580  
                             l2062 0562                               l2150 033A  
                             l2142 031B                               l2134 02CF  
                             l2126 02CA                               l2118 029D  
                             l2048 027B                               l2080 05AC  
                             l2072 058B                               l2064 0572  
                             l2056 0549                               l2160 0373  
                             l2152 0347                               l2144 031F  
                             l2136 02D8                               l2128 02CB  
                             l2090 05E1                               l2082 05B5  
                             l2074 0592                               l2058 054E  
                             l2170 03A9                               l2162 037C  
                             l2154 0350                               l2146 032C  
                             l2138 0307                               l2092 05E6  
                             l2084 05B9                               l2076 0596  
                             l2068 057B                               l1700 07CC  
                             l2180 03C8                               l2172 03AF  
                             l2164 0389                               l2156 035D  
                             l2148 0330                               l2094 05EA  
                             l2086 05C3                               l2078 059E  
                             l1710 074F                               l1702 07CE  
                             l2190 03F6                               l2174 03B2  
                             l2182 03CD                               l2158 0366  
                             l2166 0395                               l2096 05EB  
                             l2088 05CD                               l1800 072E  
                             l1712 0754                               l1704 07D3  
                             l1720 0669                               l2192 03FA  
                             l2176 03BF                               l2184 03D3  
                             l2168 039C                               l1650 06A5  
                             l1802 0732                               l1714 075E  
                             l1706 0744                               l1730 067D  
                             l1722 066B                               l1810 0439  
                             l2194 040B                               l2186 03E1  
                             l2178 03C5                               l1660 06B6  
                             l1652 06AB                               l1644 07DD  
                             l1804 073A                               l1716 0763  
                             l1708 0749                               l1740 069A  
                             l1732 0681                               l1724 0671  
                             l1812 043E                               l2196 0418  
                             l2188 03E5                               l1670 06C2  
                             l1662 06B8                               l1654 06AD  
                             l1910 064A                               l1902 0633  
                             l1646 07DF                               l1806 073E  
                             l1718 0769                               l1734 0690  
                             l1726 0674                               l1742 06A0  
                             l1750 06E7                               l1830 0480  
                             l1822 045B                               l1814 0443  
                             l2198 041D                               l1680 06C7  
                             l1672 06C3                               l1664 06BA  
                             l1656 06AF                               l1920 0040  
                             l1912 0658                               l1904 0643  
                             l1648 07E4                               l1736 0694  
                             l1728 0679                               l1760 0702  
                             l1752 06EC                               l1840 04DB  
                             l1832 04A6                               l1824 0471  
                             l1816 044A                               l1808 0438  
                             l1690 0FEE                               l1682 06C8  
                             l1674 06C4                               l1666 06BC  
                             l1658 06B1                               l1770 0772  
                             l1930 0057                               l1922 0044  
                             l1914 065D                               l1738 0695  
                             l1762 0707                               l1754 06F0  
                             l1746 06DE                               l1850 0513  
                             l1842 04DE                               l1834 04A9  
                             l1826 0474                               l1818 0452  
                             l1692 0FF1                               l1676 06C5  
                             l1668 06C0                               l1684 0FE2  
                             l1772 0779                               l1940 006E  
                             l1932 0059                               l1924 0045  
                             l1916 0036                               l1860 0793  
                             l1756 06F4                               l1748 06E4  
                             l1764 070D                               l1852 0519  
                             l1844 04E5                               l1836 04B0  
                             l1828 047B                               l1870 07EF  
                             l1694 07B2                               l1686 0FEA  
                             l1678 06C6                               l1782 0FF3  
                             l1774 077D                               l1950 0083  
                             l1942 006F                               l1934 0061  
                             l1926 004A                               l1918 003C  
                             l1790 0712                               l1862 079C  
                             l1758 06FE                               l1854 051E  
                             l1846 04EA                               l1838 04B5  
                             l1872 07F0                               l1696 07C5  
                             l1688 0FED                               l1784 0FF6  
                             l1776 0788                               l1768 0770  
                             l1960 009E                               l1952 008B  
                             l1944 0074                               l1936 0066  
                             l1928 004F                               l1880 05F4  
                             l1792 0716                               l1864 07A4  
                             l1856 0534                               l1848 0510  
                             l1874 07F1                               l1698 07C7  
                             l1786 0FF9                               l1778 078D  
                             l1970 00F9                               l1962 00AB  
                             l1954 0090                               l1946 0079  
                             l1938 006A                               l1890 061D  
                             l1882 0600                               l1794 071A  
                             l1866 07A8                               l1858 0542  
                             l1876 07F6                               l1868 07EC  
                             l1788 0FFC                               l1980 012E  
                             l1972 0106                               l1964 00B8  
                             l1956 0095                               l1948 0081  
                             l1892 0625                               l1796 0722  
                             l1990 0171                               l1982 013B  
                             l1974 0113                               l1966 00D2  
                             l1894 0627                               l1886 0609  
                             l1798 0726                               l1992 017E  
                             l1984 0142                               l1976 011A  
                             l1968 00DF                               l1896 062B  
                             l1888 061C                               l1994 0192  
                             l1986 0156                               l1978 0127  
                             l1996 01A7                               l1988 015D  
                             l1998 01BE                               STR_1 1023  
                             STR_2 1009                               STR_3 1011  
                             STR_4 1028                               STR_5 1019  
                             STR_6 101E                               STR_7 1000  
                             u1000 074F                               u1001 074E  
                             u1010 0754                               u1011 0753  
                             u1020 075A                               u1100 06A0  
                             u1021 0759                               u1101 069F  
                             u1030 0763                               u1110 06E4  
                             u1031 0762                               u1111 06E3  
                             u1040 0671                               u1200 043E  
                             u1041 0670                               u1201 043D  
                             u1130 06F4                               u1210 0443  
                             u1131 06F3                               u1211 0442  
                             u1060 0681                               u1140 06FE  
                             u1300 051E                               u1220 045A  
                             u1061 0680                               u1141 06FD  
                             u1125 06E8                               u1301 051D  
                             u1221 0459                               u1310 0542  
                             u1230 047B                               u1055 0675  
                             u1311 0541                               u1231 047A  
                             u2007 042E                               u1400 0649  
                             u1320 07B1                               u1080 0690  
                             u1160 070D                               u1240 0480  
                             u1401 0648                               u2017 07D0  
                             u1321 07B0                               u1081 068F  
                             u1161 070C                               u1145 06FA  
                             u1241 047F                               u1330 07F6  
                             u1170 077D                               u1250 04B0  
                             u1331 07F5                               u1171 077C  
                             u2107 07E7                               u2027 07D6  
                             u1075 0682                               u1155 0703  
                             u1315 053E                               u1251 04AF  
                             u1500 0090                               u1420 0658  
                             u1340 0600                               u1260 04B5  
                             u1501 008F                               u1421 0657  
                             u1341 05FF                               u2037 0717  
                             u1085 068C                               u1261 04B4  
                             _LATA 0016                               u1190 078D  
                             u1510 0095                               u1430 065D  
                             u1350 0616                               u1270 04E5  
                             _LATB 0017                               u1191 078C  
                             u1511 0094                               u1431 065C  
                             u1415 064B                               u2047 071F  
                             u1095 0696                               u1271 04E4  
                             _LATC 0018                               u1600 01EC  
                             u1440 0044                               u1360 062B  
                             u1280 04EA                               _LATD 0019  
                             u1185 0782                               u1601 01EB  
                             u1441 0043                               u1361 062A  
                             u2057 0727                               u1281 04E9  
                             _LATE 001A                               u1610 01F1  
                             u1450 004A                               u1370 0632  
                             u1290 0519                               u1611 01F0  
                             u1451 0049                               u1371 0631  
                             u1355 0612                               u2067 072F  
                             u1291 0518                               u1620 0205  
                             u1540 019D                               u1460 004F  
                             u1700 054E                               u1621 0204  
                             u1525 0114                               u1461 004E  
                             u1701 054D                               u2077 0737  
                             u1630 020C                               u1550 01B4  
                             u1470 006E                               u1390 0642  
                             u1710 0552                               u1631 020B  
                             u1535 0143                               u1471 006D  
                             u1391 0641                               u1711 0551  
                             u2087 073F                               u1640 0212  
                             u1480 0074                               u1800 05C3  
                             u1720 0572                               u1641 0211  
                             u1545 0199                               u1481 0073  
                             u1385 0634                               u1801 05C2  
                             u1721 0571                               u2097 07E1  
                             u1650 021E                               u1490 0079  
                             u1810 05D7                               u1651 021D  
                             u1555 01B0                               u1491 0078  
                             u1660 022C                               u1580 01DC  
                             u1820 05E6                               u1740 0591  
                             u1900 037C                               u1581 01DB  
                             u1565 01BF                               u1821 05E5  
                             u1741 0590                               u1901 037B  
                             u1670 0247                               u1830 05EA  
                             u1910 039C                               u1671 0246  
                             u1575 01D2                               u1831 05E9  
                             u1815 05D3                               u1735 0585  
                             u1911 039B                               u1680 025F  
                             u1760 05AB                               u1920 03A9  
                             u1681 025E                               u1665 0228  
                             u1761 05AA                               u1921 03A8  
                             u1690 027B                               u1930 03BF  
                             u1691 027A                               u1675 0243  
                             u1595 01DE                               u1755 059F  
                             u1931 03BE                               u1780 05B9  
                             u1940 041D                               u1685 025B  
                             u1781 05B8                               u1941 041C  
                             u1925 03A5                               u1790 05BF  
                             u1950 0426                               u1870 033A  
                             u1791 05BE                               u1775 05AF  
                             u1951 0423                               u1935 03BB  
                             u1871 0339                               u1880 0350  
                             u1881 034F                               u1890 0366  
                             u1891 0365                               u1964 0428  
                             _PMD0 0796                               _PMD1 0797  
                             _PMD2 0798                               _PMD3 0799  
                             _PMD4 079A                               u1977 02C5  
                             _PMD5 079B                               u1987 032D  
                             u1997 0411                               _WPUA 1F39  
                             _WPUB 1F44                               _WPUC 1F4F  
                             _WPUD 1F5A                               _WPUE 1F65  
                             _main 028D                               fsr0h 0005  
                             indf0 0000                               fsr0l 0004  
                             btemp 007E                               start 0026  
                      main@voltage 004B     __size_of_OSCILLATOR_Initialize 0009  
    __end_of_OSCILLATOR_Initialize 0FF3                      ___fltol@sign1 007A  
                            _ADACQ 009D                              _ADCAP 009B  
                            _ADACT 0099                              ?_main 0070  
                            _ADCLK 0098                              _ADCNT 010C  
                            _ADPCH 009E                              _ADREF 009A  
                            _ADPRE 009C                              _ADRPT 010D  
                  __end_of___flmul 028D                    __end_of___fltol 0669  
                  __end_of___lwdiv 06A5                              i1l213 0024  
                  __end_of___lwmod 0712                              _OSCEN 0891  
                            _TRISA 0011                              _TRISB 0012  
                            _TRISC 0013                              _TRISD 0014  
                            _TRISE 0015                              _MyISR 0004  
                     lcd_print@row 002F                    __end_of_lcd_cmd 07EB  
                  __end_of_lcd_out 07B2                              _start 007C  
                            status 0003                              wtemp0 007E  
                  __initialization 0028                       _stop_minutes 0051  
                     _stop_seconds 0053                       __end_of_main 0436  
                           ??_main 0049                             ?_MyISR 0070  
                           _ADACCH 0091                             _ADACCL 0090  
                           _ADCON0 0093                             _ADCON1 0094  
                           _ADCON2 0095                             _ADCON3 0096  
                           _ADERRH 0117                             _ADERRL 0116  
                           _ADLTHH 010F                             _ADLTHL 010E  
                           _ADRESH 008D                             _ADRESL 008C  
                           _ADSTAT 0097                             _ADUTHH 0111  
                           _ADUTHL 0110                             _ANSELA 1F38  
                           _ANSELB 1F43                             _ANSELC 1F4E  
                           _ANSELD 1F59                             _ANSELE 1F64  
                           i1l2100 0006                             i1l2102 000B  
                           i1l2104 0017                             i1l2106 001B  
                           i1l2108 0022                             _ODCONA 1F3A  
                           _ODCONB 1F45                             _ODCONC 1F50  
                           _ODCOND 1F5B                             _ODCONE 1F66  
                           u211_27 001E                             _INLVLA 1F3C  
                           _INLVLB 1F47                             _INLVLC 1F52  
                           _INLVLD 1F5D                             _INLVLE 1F68  
                           u184_20 000B                             u184_21 000A  
                           u185_20 0015                             u185_21 0012  
                           u186_24 0017                             _OSCFRQ 0893  
                lcd_print@thousand 002B                   __end_of___xxtofl 05F4  
                    lcd_print@flag 0032                      lcd_print@temp 0030  
                    lcd_print@tens 0027                      lcd_print@unit 0025  
                 __end_of_lcd_data 07DA                   __end_of_lcd_init 0743  
                        ??___flmul 002E                          ??___fltol 0044  
                        ??___lwdiv 0075                          ??___lwmod 0075  
                 __end_of_cursorxy 076F                          ??_lcd_cmd 0071  
                        ??_lcd_out 0077                    _ADCC_Initialize 07B2  
                   _PMD_Initialize 0FE2                 __size_of__Umul8_16 0023  
__size_of_ADCC_GetSingleConversion 0010          ?_ADCC_GetSingleConversion 0071  
                     ___xxtofl@arg 0022                       ___xxtofl@exp 0021  
                _SYSTEM_Initialize 0FF3                       ___xxtofl@val 0071  
          __end_of__initialization 0032                 ?_SYSTEM_Initialize 0070  
                       ___fltol@f1 0040                      __end_of_MyISR 0026  
                   __pcstackCOMMON 0070                ??_SYSTEM_Initialize 0071  
           __end_of_PMD_Initialize 0FEA                            ??_MyISR 0070  
               __size_of_lcd_print 0111          __end_of_SYSTEM_Initialize 1000  
                       __pbssBANK0 004F                  __end_of__Umul8_16 0792  
                       __pmaintext 028D            __end_of_ADCC_Initialize 07C9  
                       __pintentry 0004                            _ADFLTRH 0115  
                          _ADFLTRL 0114                            _ADPREVH 008F  
                          _ADPREVL 008E                            _ADSTPTH 0113  
                          _ADSTPTL 0112                    ?_PMD_Initialize 0070  
                        ?___xxtofl 0071                            _OSCCON1 088D  
                          _OSCCON3 088F                            _OSCTUNE 0892  
                          _SLRCONA 1F3B                            _SLRCONB 1F46  
                          _SLRCONC 1F51                            _SLRCOND 1F5C  
                          _SLRCONE 1F67                          ?_lcd_data 0070  
                        ?_lcd_init 0070                          ?_cursorxy 0072  
                   lcd_print@value 0021                  __end_of_lcd_print 0547  
                          ___flmul 0036                            ___fltol 05F4  
                          ___lwdiv 0669                            ___lwmod 06DE  
                          __ptext1 0436                            __ptext2 06DE  
                          __ptext3 0669                            __ptext4 0792  
                          __ptext5 07C9                            __ptext6 0743  
                          __ptext7 0712                            __ptext8 07DA  
                          __ptext9 0547                            _lcd_cmd 07DA  
                          _lcd_out 0792              _OSCILLATOR_Initialize 0FEA  
                       ??___xxtofl 0075           ??_PIN_MANAGER_Initialize 0071  
                       ??_lcd_data 0071         __size_of_SYSTEM_Initialize 000D  
                       ??_lcd_init 0072               end_of_initialization 0032  
                       ??_cursorxy 0073                   ?_ADCC_Initialize 0070  
 __end_of_ADCC_GetSingleConversion 07FB                          _PORTBbits 000D  
                    ___xxtofl@sign 0020                         lcd_cmd@cmd 0071  
                      ___flmul@grs 0034                         lcd_out@str 0075  
                       _stop_hours 004F             ?_OSCILLATOR_Initialize 0070  
                   _stop_watchflag 0055                start_initialization 0028  
  __size_of_PIN_MANAGER_Initialize 0039                   lcd_print@coloumn 0020  
                 lcd_print@million 002D                   lcd_print@hundred 0029  
                 ??_PMD_Initialize 0071                          __Umul8_16 076F  
         _ADCC_GetSingleConversion 07EB                          ___flmul@a 002A  
                        ___flmul@b 0026                        __pbssCOMMON 007C  
                        ___latbits 0004                      __pcstackBANK0 0020  
                __size_of___xxtofl 00AD                  __size_of_lcd_data 0011  
                __size_of_lcd_init 0031                   ___lwdiv@dividend 0073  
           _PIN_MANAGER_Initialize 06A5                  __size_of_cursorxy 002C  
  ADCC_GetSingleConversion@channel 0073                           ?___flmul 0026  
                         ?___fltol 0040                         ?__Umul8_16 0071  
                         ?___lwdiv 0071                           ?___lwmod 0071  
                        _lcd_print 0436                           ?_lcd_cmd 0070  
                         ?_lcd_out 0074                     __size_of_MyISR 0022  
                 ___lwdiv@quotient 0076                           _LATBbits 0017  
                         _LATEbits 001A                           _PIE0bits 0716  
                         _PIR0bits 070C                         ?_lcd_print 0020  
                       _ADCON0bits 0093                         _ADCON1bits 0094  
                       _ADCON2bits 0095                         _ADCON3bits 0096  
                  lcd_print@digits 0023                         _ADSTATbits 0097  
          ??_OSCILLATOR_Initialize 0071                        ??__Umul8_16 0073  
                 __size_of___flmul 0257                   __size_of___fltol 0075  
                        cursorxy@x 0073                          cursorxy@y 0072  
                 __size_of___lwdiv 003C                   __size_of___lwmod 0034  
                 __size_of_lcd_cmd 0011                   __size_of_lcd_out 0020  
                         ___xxtofl 0547           __size_of_ADCC_Initialize 0017  
                  ___lwdiv@divisor 0071                    ___lwdiv@counter 0078  
                         __ptext10 05F4                           __ptext11 0036  
                         __ptext12 076F                           __ptext13 0FF3  
                         __ptext14 0FE2                           __ptext15 06A5  
                         __ptext16 0FEA                           __ptext17 07B2  
                         __ptext18 07EB                           _lcd_data 07C9  
                         _lcd_init 0712                      __size_of_main 01A9  
                         _cursorxy 0743         ??_ADCC_GetSingleConversion 0073  
                         int$flags 007E                    main@temp_holder 004D  
                         lcd_out@x 0078                           lcd_out@y 0074  
                      ??_lcd_print 0079                         _INTCONbits 000B  
                         intlevel1 0000                   ___lwmod@dividend 0073  
          ?_PIN_MANAGER_Initialize 0070                      __pstringtext1 1000  
                    __pstringtext2 1009                      __pstringtext3 1011  
                    __pstringtext4 1019                      __pstringtext5 101E  
                    __pstringtext6 1023                      __pstringtext7 1028  
                    __pstringtext8 0000             __Umul8_16@multiplicand 0071  
                  ___lwmod@divisor 0071                    ___lwmod@counter 0076  
   __end_of_PIN_MANAGER_Initialize 06DE                  ??_ADCC_Initialize 0071  
             __Umul8_16@multiplier 0079                  __Umul8_16@product 0075  
